   1               		.file	"kuznyechik.c"
   2               	__SP_H__ = 0x3e
   3               	__SP_L__ = 0x3d
   4               	__SREG__ = 0x3f
   5               	__RAMPZ__ = 0x3b
   6               	__CCP__ = 0x34
   7               	__tmp_reg__ = 0
   8               	__zero_reg__ = 1
   9               		.text
  10               	.Ltext0:
  11               		.cfi_sections	.debug_frame
  13               	AddRoundKey:
  14               	.LFB8:
  15               		.file 1 "kuznyechik.c"
   1:kuznyechik.c  **** /* This Grasshopper implementation was based on https://github.com/gostru/gr
   2:kuznyechik.c  **** 
   3:kuznyechik.c  **** /*
   4:kuznyechik.c  **** 
   5:kuznyechik.c  **** This is an implementation of the Kuznyechik algorithm.
   6:kuznyechik.c  **** 
   7:kuznyechik.c  **** The implementation is verified against the test vectors in:
   8:kuznyechik.c  ****   Cryptographic Protection of Information Through Bloc Encryption (translated standard of the Kuzny
   9:kuznyechik.c  **** 
  10:kuznyechik.c  **** ----------
  11:kuznyechik.c  **** 
  12:kuznyechik.c  ****   plain-text:
  13:kuznyechik.c  ****     1122334455667700ffeeddccbbaa9988
  14:kuznyechik.c  **** 
  15:kuznyechik.c  ****   key:
  16:kuznyechik.c  ****     8899aabbccddeeff0011223344556677fedcba98765432100123456789abcdef
  17:kuznyechik.c  **** 
  18:kuznyechik.c  ****   resulting cipher:
  19:kuznyechik.c  ****     7f679d90bebc24305a468d42b9d4edcd
  20:kuznyechik.c  **** 
  21:kuznyechik.c  **** 
  22:kuznyechik.c  **** */
  23:kuznyechik.c  **** 
  24:kuznyechik.c  **** 
  25:kuznyechik.c  **** /*****************************************************************************/
  26:kuznyechik.c  **** /* Includes:                                                                 */
  27:kuznyechik.c  **** /*****************************************************************************/
  28:kuznyechik.c  **** #include <stdint.h>
  29:kuznyechik.c  **** #include <string.h> // CBC mode, for memset
  30:kuznyechik.c  **** #include <stdio.h>
  31:kuznyechik.c  **** #include <inttypes.h>
  32:kuznyechik.c  **** #include <unistd.h>
  33:kuznyechik.c  **** #include "kuznyechik.h"
  34:kuznyechik.c  **** 
  35:kuznyechik.c  **** 
  36:kuznyechik.c  **** /*****************************************************************************/
  37:kuznyechik.c  **** /* Defines:                                                                  */
  38:kuznyechik.c  **** /*****************************************************************************/
  39:kuznyechik.c  **** // State length in bytes [128 bits]
  40:kuznyechik.c  **** #define STATELEN 16
  41:kuznyechik.c  **** // Key length in bytes [256 bits]
  42:kuznyechik.c  **** #define KEYLEN 32
  43:kuznyechik.c  **** // The number of rounds in AES Cipher.
  44:kuznyechik.c  **** 
  45:kuznyechik.c  **** /*****************************************************************************/
  46:kuznyechik.c  **** /* Private variables:                                                        */
  47:kuznyechik.c  **** /*****************************************************************************/
  48:kuznyechik.c  **** // state - array holding the intermediate results during decryption.
  49:kuznyechik.c  **** typedef uint8_t state_t[16];
  50:kuznyechik.c  **** static state_t* state;
  51:kuznyechik.c  **** static state_t stateDuringKS;
  52:kuznyechik.c  **** 
  53:kuznyechik.c  **** // The array that stores the round keys.
  54:kuznyechik.c  **** static state_t RoundKey[66];
  55:kuznyechik.c  **** static state_t trueRoundKey[10] = {
  56:kuznyechik.c  ****   {0x88, 0x99, 0xaa, 0xbb, 0xcc, 0xdd, 0xee, 0xff, 0x00, 0x11, 0x22, 0x33, 0x44, 0x55, 0x66, 0x77},
  57:kuznyechik.c  ****   {0xfe, 0xdc, 0xba, 0x98, 0x76, 0x54, 0x32, 0x10, 0x01, 0x23, 0x45, 0x67, 0x89, 0xab, 0xcd, 0xef},
  58:kuznyechik.c  ****   {0xdb, 0x31, 0x48, 0x53, 0x15, 0x69, 0x43, 0x43, 0x22, 0x8d, 0x6a, 0xef, 0x8c, 0xc7, 0x8c, 0x44},
  59:kuznyechik.c  ****   {0x3d, 0x45, 0x53, 0xd8, 0xe9, 0xcf, 0xec, 0x68, 0x15, 0xeb, 0xad, 0xc4, 0x0a, 0x9f, 0xfd, 0x04},
  60:kuznyechik.c  ****   {0x57, 0x64, 0x64, 0x68, 0xc4, 0x4a, 0x5e, 0x28, 0xd3, 0xe5, 0x92, 0x46, 0xf4, 0x29, 0xf1, 0xac},
  61:kuznyechik.c  ****   {0xbd, 0x07, 0x94, 0x35, 0x16, 0x5c, 0x64, 0x32, 0xb5, 0x32, 0xe8, 0x28, 0x34, 0xda, 0x58, 0x1b},
  62:kuznyechik.c  ****   {0x51, 0xe6, 0x40, 0x75, 0x7e, 0x87, 0x45, 0xde, 0x70, 0x57, 0x27, 0x26, 0x5a, 0x00, 0x98, 0xb1},
  63:kuznyechik.c  ****   {0x5a, 0x79, 0x25, 0x01, 0x7b, 0x9f, 0xdd, 0x3e, 0xd7, 0x2a, 0x91, 0xa2, 0x22, 0x86, 0xf9, 0x84},
  64:kuznyechik.c  ****   {0xbb, 0x44, 0xe2, 0x53, 0x78, 0xc7, 0x31, 0x23, 0xa5, 0xf3, 0x2f, 0x73, 0xcd, 0xb6, 0xe5, 0x17},
  65:kuznyechik.c  ****   {0x72, 0xe9, 0xdd, 0x74, 0x16, 0xbc, 0xf4, 0x5b, 0x75, 0x5d, 0xba, 0xa8, 0x8e, 0x4a, 0x40, 0x43}
  66:kuznyechik.c  **** };
  67:kuznyechik.c  **** 
  68:kuznyechik.c  **** // The Key input to the Kuznyechik Program
  69:kuznyechik.c  **** static uint8_t* Key;
  70:kuznyechik.c  **** 
  71:kuznyechik.c  **** /*****************************************************************************/
  72:kuznyechik.c  **** /*      S-Boxes declarations                                                 */
  73:kuznyechik.c  **** /*****************************************************************************/
  74:kuznyechik.c  **** 
  75:kuznyechik.c  **** KUZNYECHIK_CONST_VAR uint8_t sbox[256] =   {
  76:kuznyechik.c  ****   252, 238, 221,  17, 207, 110,  49,  22, 251, 196, 250, 218,  35, 197,   4,  77, 
  77:kuznyechik.c  ****   233, 119, 240, 219, 147,  46, 153, 186,  23,  54, 241, 187,  20, 205,  95, 193, 
  78:kuznyechik.c  ****   249,  24, 101,  90, 226,  92, 239,  33, 129,  28,  60,  66, 139,   1, 142,  79, 
  79:kuznyechik.c  ****   5, 132,   2, 174, 227, 106, 143, 160,   6,  11, 237, 152, 127, 212, 211,  31, 
  80:kuznyechik.c  ****   235,  52,  44,  81, 234, 200,  72, 171, 242,  42, 104, 162, 253,  58, 206, 204, 
  81:kuznyechik.c  ****   181, 112,  14,  86,   8,  12, 118,  18, 191, 114,  19,  71, 156, 183,  93, 135, 
  82:kuznyechik.c  ****   21, 161, 150,  41,  16, 123, 154, 199, 243, 145, 120, 111, 157, 158, 178, 177, 
  83:kuznyechik.c  ****   50, 117,  25,  61, 255,  53, 138, 126, 109,  84, 198, 128, 195, 189,  13,  87, 
  84:kuznyechik.c  ****   223, 245,  36, 169,  62, 168,  67, 201, 215, 121, 214, 246, 124,  34, 185,   3, 
  85:kuznyechik.c  ****   224,  15, 236, 222, 122, 148, 176, 188, 220, 232,  40,  80,  78,  51,  10,  74, 
  86:kuznyechik.c  ****   167, 151,  96, 115,  30,   0,  98,  68,  26, 184,  56, 130, 100, 159,  38,  65, 
  87:kuznyechik.c  ****   173,  69,  70, 146,  39,  94,  85,  47, 140, 163, 165, 125, 105, 213, 149,  59, 
  88:kuznyechik.c  ****   7,  88, 179,  64, 134, 172,  29, 247,  48,  55, 107, 228, 136, 217, 231, 137, 
  89:kuznyechik.c  ****   225,  27, 131,  73,  76,  63, 248, 254, 141,  83, 170, 144, 202, 216, 133,  97, 
  90:kuznyechik.c  ****   32, 113, 103, 164,  45,  43,   9,  91, 203, 155,  37, 208, 190, 229, 108,  82, 
  91:kuznyechik.c  ****   89, 166, 116, 210, 230, 244, 180, 192, 209, 102, 175, 194, 57, 75, 99, 182 };
  92:kuznyechik.c  **** 
  93:kuznyechik.c  **** KUZNYECHIK_CONST_VAR uint8_t rsbox[256] ={ 
  94:kuznyechik.c  ****   165,  45,  50, 143,  14,  48,  56, 192,  84, 230, 158,  57,  85, 126,  82, 145,
  95:kuznyechik.c  ****   100,   3,  87,  90,  28,  96,   7,  24,  33, 114, 168, 209,  41, 198, 164,  63,
  96:kuznyechik.c  ****   224,  39, 141,  12, 130, 234, 174, 180, 154,  99,  73, 229,  66, 228,  21, 183,
  97:kuznyechik.c  ****   200,   6, 112, 157,  65, 117,  25, 201, 170, 252,  77, 191,  42, 115, 132, 213,
  98:kuznyechik.c  ****   195, 175,  43, 134, 167, 177, 178,  91,  70, 211, 159, 253, 212,  15, 156,  47,
  99:kuznyechik.c  ****   155,  67, 239, 217, 121, 182,  83, 127, 193, 240,  35, 231,  37,  94, 181,  30,
 100:kuznyechik.c  ****   162, 223, 166, 254, 172,  34, 249, 226,  74, 188,  53, 202, 238, 120,   5, 107,
 101:kuznyechik.c  ****   81, 225,  89, 163, 242, 113,  86,  17, 106, 137, 148, 101, 140, 187, 119,  60,
 102:kuznyechik.c  ****   123,  40, 171, 210,  49, 222, 196,  95, 204, 207, 118,  44, 184, 216,  46,  54,
 103:kuznyechik.c  ****   219, 105, 179,  20, 149, 190,  98, 161,  59,  22, 102, 233,  92, 108, 109, 173,
 104:kuznyechik.c  ****   55,  97,  75, 185, 227, 186, 241, 160, 133, 131, 218,  71, 197, 176,  51, 250,
 105:kuznyechik.c  ****   150, 111, 110, 194, 246,  80, 255,  93, 169, 142,  23,  27, 151, 125, 236,  88,
 106:kuznyechik.c  ****   247,  31, 251, 124,   9,  13, 122, 103,  69, 135, 220, 232,  79,  29,  78,   4,
 107:kuznyechik.c  ****   235, 248, 243,  62,  61, 189, 138, 136, 221, 205,  11,  19, 152,   2, 147, 128,
 108:kuznyechik.c  ****   144, 208,  36,  52, 203, 237, 244, 206, 153,  16,  68,  64, 146,  58,   1,  38,
 109:kuznyechik.c  ****   18, 26, 72, 104, 245, 129, 139, 199, 214, 32, 10, 8, 0, 76, 215, 116 };
 110:kuznyechik.c  **** 
 111:kuznyechik.c  **** /*****************************************************************************/
 112:kuznyechik.c  **** /* Private functions related to Sbox:                                        */
 113:kuznyechik.c  **** /*****************************************************************************/
 114:kuznyechik.c  **** 
 115:kuznyechik.c  **** static uint8_t getSBoxValue(uint8_t num)
 116:kuznyechik.c  **** {
 117:kuznyechik.c  ****   return sbox[num];
 118:kuznyechik.c  **** }
 119:kuznyechik.c  **** 
 120:kuznyechik.c  **** static uint8_t getSBoxInvert(uint8_t num)
 121:kuznyechik.c  **** {
 122:kuznyechik.c  ****   return rsbox[num];
 123:kuznyechik.c  **** }
 124:kuznyechik.c  **** 
 125:kuznyechik.c  **** /*****************************************************************************/
 126:kuznyechik.c  **** /* GF-2 Multiplication :                                                     */
 127:kuznyechik.c  **** /*****************************************************************************/
 128:kuznyechik.c  **** 
 129:kuznyechik.c  **** static uint8_t mult_mod_poly[8][256] = {
 130:kuznyechik.c  ****     {   0,   1,   2,   3,   4,   5,   6,   7,   8,   9,  10,  11,  12,  13,  14,  15,  16,  17,  18
 131:kuznyechik.c  ****         32,  33,  34,  35,  36,  37,  38,  39,  40,  41,  42,  43,  44,  45,  46,  47,  48,  49,  5
 132:kuznyechik.c  ****         64,  65,  66,  67,  68,  69,  70,  71,  72,  73,  74,  75,  76,  77,  78,  79,  80,  81,  8
 133:kuznyechik.c  ****         96,  97,  98,  99, 100, 101, 102, 103, 104, 105, 106, 107, 108, 109, 110, 111, 112, 113, 11
 134:kuznyechik.c  ****         128, 129, 130, 131, 132, 133, 134, 135, 136, 137, 138, 139, 140, 141, 142, 143, 144, 145, 1
 135:kuznyechik.c  ****         160, 161, 162, 163, 164, 165, 166, 167, 168, 169, 170, 171, 172, 173, 174, 175, 176, 177, 1
 136:kuznyechik.c  ****         192, 193, 194, 195, 196, 197, 198, 199, 200, 201, 202, 203, 204, 205, 206, 207, 208, 209, 2
 137:kuznyechik.c  ****         224, 225, 226, 227, 228, 229, 230, 231, 232, 233, 234, 235, 236, 237, 238, 239, 240, 241, 2
 138:kuznyechik.c  ****     {   0,  16,  32,  48,  64,  80,  96, 112, 128, 144, 160, 176, 192, 208, 224, 240, 195, 211, 227
 139:kuznyechik.c  ****         69,  85, 101, 117,   5,  21,  37,  53, 197, 213, 229, 245, 133, 149, 165, 181, 134, 150, 16
 140:kuznyechik.c  ****         138, 154, 170, 186, 202, 218, 234, 250,  10,  26,  42,  58,  74,  90, 106, 122,  73,  89, 1
 141:kuznyechik.c  ****         207, 223, 239, 255, 143, 159, 175, 191,  79,  95, 111, 127,  15,  31,  47,  63,  12,  28,  
 142:kuznyechik.c  ****         215, 199, 247, 231, 151, 135, 183, 167,  87,  71, 119, 103,  23,   7,  55,  39,  20,   4,  
 143:kuznyechik.c  ****         146, 130, 178, 162, 210, 194, 242, 226,  18,   2,  50,  34,  82,  66, 114,  98,  81,  65, 1
 144:kuznyechik.c  ****         93,  77, 125, 109,  29,  13,  61,  45, 221, 205, 253, 237, 157, 141, 189, 173, 158, 142, 19
 145:kuznyechik.c  ****         24,   8,  56,  40,  88,  72, 120, 104, 152, 136, 184, 168, 216, 200, 248, 232, 219, 203, 25
 146:kuznyechik.c  ****     {   0,  32,  64,  96, 128, 160, 192, 224, 195, 227, 131, 163,  67,  99,   3,  35,  69, 101,   5
 147:kuznyechik.c  ****         138, 170, 202, 234,  10,  42,  74, 106,  73, 105,   9,  41, 201, 233, 137, 169, 207, 239, 1
 148:kuznyechik.c  ****         215, 247, 151, 183,  87, 119,  23,  55,  20,  52,  84, 116, 148, 180, 212, 244, 146, 178, 2
 149:kuznyechik.c  ****         93, 125,  29,  61, 221, 253, 157, 189, 158, 190, 222, 254,  30,  62,  94, 126,  24,  56,  8
 150:kuznyechik.c  ****         109,  77,  45,  13, 237, 205, 173, 141, 174, 142, 238, 206,  46,  14, 110,  78,  40,   8, 1
 151:kuznyechik.c  ****         231, 199, 167, 135, 103,  71,  39,   7,  36,   4, 100,  68, 164, 132, 228, 196, 162, 130, 2
 152:kuznyechik.c  ****         186, 154, 250, 218,  58,  26, 122,  90, 121,  89,  57,  25, 249, 217, 185, 153, 255, 223, 1
 153:kuznyechik.c  ****         48,  16, 112,  80, 176, 144, 240, 208, 243, 211, 179, 147, 115,  83,  51,  19, 117,  85,  5
 154:kuznyechik.c  ****     {   0, 133, 201,  76,  81, 212, 152,  29, 162,  39, 107, 238, 243, 118,  58, 191, 135,   2,  78
 155:kuznyechik.c  ****         205,  72,   4, 129, 156,  25,  85, 208, 111, 234, 166,  35,  62, 187, 247, 114,  74, 207, 1
 156:kuznyechik.c  ****         89, 220, 144,  21,   8, 141, 193,  68, 251, 126,  50, 183, 170,  47,  99, 230, 222,  91,  2
 157:kuznyechik.c  ****         148,  17,  93, 216, 197,  64,  12, 137,  54, 179, 255, 122, 103, 226, 174,  43,  19, 150, 2
 158:kuznyechik.c  ****         178,  55, 123, 254, 227, 102,  42, 175,  16, 149, 217,  92,  65, 196, 136,  13,  53, 176, 2
 159:kuznyechik.c  ****         127, 250, 182,  51,  46, 171, 231,  98, 221,  88,  20, 145, 140,   9,  69, 192, 248, 125,  
 160:kuznyechik.c  ****         235, 110,  34, 167, 186,  63, 115, 246,  73, 204, 128,   5,  24, 157, 209,  84, 108, 233, 1
 161:kuznyechik.c  ****         38, 163, 239, 106, 119, 242, 190,  59, 132,   1,  77, 200, 213,  80,  28, 153, 161,  36, 10
 162:kuznyechik.c  ****     {   0, 148, 235, 127,  21, 129, 254, 106,  42, 190, 193,  85,  63, 171, 212,  64,  84, 192, 191
 163:kuznyechik.c  ****         168,  60,  67, 215, 189,  41,  86, 194, 130,  22, 105, 253, 151,   3, 124, 232, 252, 104,  
 164:kuznyechik.c  ****         147,   7, 120, 236, 134,  18, 109, 249, 185,  45,  82, 198, 172,  56,  71, 211, 199,  83,  
 165:kuznyechik.c  ****         59, 175, 208,  68,  46, 186, 197,  81,  17, 133, 250, 110,   4, 144, 239, 123, 111, 251, 13
 166:kuznyechik.c  ****         229, 113,  14, 154, 240, 100,  27, 143, 207,  91,  36, 176, 218,  78,  49, 165, 177,  37,  
 167:kuznyechik.c  ****         77, 217, 166,  50,  88, 204, 179,  39, 103, 243, 140,  24, 114, 230, 153,  13,  25, 141, 24
 168:kuznyechik.c  ****         118, 226, 157,   9,  99, 247, 136,  28,  92, 200, 183,  35,  73, 221, 162,  54,  34, 182, 2
 169:kuznyechik.c  ****         222,  74,  53, 161, 203,  95,  32, 180, 244,  96,  31, 139, 225, 117,  10, 158, 138,  30,  
 170:kuznyechik.c  ****     {   0, 192,  67, 131, 134,  70, 197,   5, 207,  15, 140,  76,  73, 137,  10, 202,  93, 157,  30
 171:kuznyechik.c  ****         186, 122, 249,  57,  60, 252, 127, 191, 117, 181,  54, 246, 243,  51, 176, 112, 231,  39, 1
 172:kuznyechik.c  ****         183, 119, 244,  52,  49, 241, 114, 178, 120, 184,  59, 251, 254,  62, 189, 125, 234,  42, 1
 173:kuznyechik.c  ****         13, 205,  78, 142, 139,  75, 200,   8, 194,   2, 129,  65,  68, 132,   7, 199,  80, 144,  1
 174:kuznyechik.c  ****         173, 109, 238,  46,  43, 235, 104, 168,  98, 162,  33, 225, 228,  36, 167, 103, 240,  48, 1
 175:kuznyechik.c  ****         23, 215,  84, 148, 145,  81, 210,  18, 216,  24, 155,  91,  94, 158,  29, 221,  74, 138,   
 176:kuznyechik.c  ****         26, 218,  89, 153, 156,  92, 223,  31, 213,  21, 150,  86,  83, 147,  16, 208,  71, 135,   
 177:kuznyechik.c  ****         160,  96, 227,  35,  38, 230, 101, 165, 111, 175,  44, 236, 233,  41, 170, 106, 253,  61, 1
 178:kuznyechik.c  ****     {   0, 194,  71, 133, 142,  76, 201,  11, 223,  29, 152,  90,  81, 147,  22, 212, 125, 191,  58
 179:kuznyechik.c  ****         250,  56, 189, 127, 116, 182,  51, 241,  37, 231,  98, 160, 171, 105, 236,  46, 135,  69, 1
 180:kuznyechik.c  ****         55, 245, 112, 178, 185, 123, 254,  60, 232,  42, 175, 109, 102, 164,  33, 227,  74, 136,  1
 181:kuznyechik.c  ****         205,  15, 138,  72,  67, 129,   4, 198,  18, 208,  85, 151, 156,  94, 219,  25, 176, 114, 2
 182:kuznyechik.c  ****         110, 172,  41, 235, 224,  34, 167, 101, 177, 115, 246,  52,  63, 253, 120, 186,  19, 209,  
 183:kuznyechik.c  ****         148,  86, 211,  17,  26, 216,  93, 159,  75, 137,  12, 206, 197,   7, 130,  64, 233,  43, 1
 184:kuznyechik.c  ****         89, 155,  30, 220, 215,  21, 144,  82, 134,  68, 193,   3,   8, 202,  79, 141,  36, 230,  9
 185:kuznyechik.c  ****         163,  97, 228,  38,  45, 239, 106, 168, 124, 190,  59, 249, 242,  48, 181, 119, 222,  28, 1
 186:kuznyechik.c  ****     {   0, 251,  53, 206, 106, 145,  95, 164, 212,  47, 225,  26, 190,  69, 139, 112, 107, 144,  94
 187:kuznyechik.c  ****         214,  45, 227,  24, 188,  71, 137, 114,   2, 249,  55, 204, 104, 147,  93, 166, 189,  70, 1
 188:kuznyechik.c  ****         111, 148,  90, 161,   5, 254,  48, 203, 187,  64, 142, 117, 209,  42, 228,  31,   4, 255,  
 189:kuznyechik.c  ****         185,  66, 140, 119, 211,  40, 230,  29, 109, 150,  88, 163,   7, 252,  50, 201, 210,  41, 2
 190:kuznyechik.c  ****         222,  37, 235,  16, 180,  79, 129, 122,  10, 241,  63, 196,  96, 155,  85, 174, 181,  78, 1
 191:kuznyechik.c  ****         8, 243,  61, 198,  98, 153,  87, 172, 220,  39, 233,  18, 182,  77, 131, 120,  99, 152,  86
 192:kuznyechik.c  ****         177,  74, 132, 127, 219,  32, 238,  21, 101, 158,  80, 171,  15, 244,  58, 193, 218,  33, 2
 193:kuznyechik.c  ****         103, 156,  82, 169,  13, 246,  56, 195, 179,  72, 134, 125, 217,  34, 236,  23,  12, 247,  
 194:kuznyechik.c  **** };
 195:kuznyechik.c  **** 
 196:kuznyechik.c  **** /*****************************************************************************/
 197:kuznyechik.c  **** /* Key Expansion       :                                                     */
 198:kuznyechik.c  **** /*****************************************************************************/
 199:kuznyechik.c  **** 
 200:kuznyechik.c  **** static state_t C[32] = {
 201:kuznyechik.c  ****     {0x6e, 0xa2, 0x76, 0x72, 0x6c, 0x48, 0x7a, 0xb8, 0x5d, 0x27, 0xbd, 0x10, 0xdd, 0x84, 0x94, 0x01
 202:kuznyechik.c  ****     {0xdc, 0x87, 0xec, 0xe4, 0xd8, 0x90, 0xf4, 0xb3, 0xba, 0x4e, 0xb9, 0x20, 0x79, 0xcb, 0xeb, 0x02
 203:kuznyechik.c  ****     {0xb2, 0x25, 0x9a, 0x96, 0xb4, 0xd8, 0x8e, 0x0b, 0xe7, 0x69, 0x04, 0x30, 0xa4, 0x4f, 0x7f, 0x03
 204:kuznyechik.c  ****     {0x7b, 0xcd, 0x1b, 0x0b, 0x73, 0xe3, 0x2b, 0xa5, 0xb7, 0x9c, 0xb1, 0x40, 0xf2, 0x55, 0x15, 0x04
 205:kuznyechik.c  ****     {0x15, 0x6f, 0x6d, 0x79, 0x1f, 0xab, 0x51, 0x1d, 0xea, 0xbb, 0x0c, 0x50, 0x2f, 0xd1, 0x81, 0x05
 206:kuznyechik.c  ****     {0xa7, 0x4a, 0xf7, 0xef, 0xab, 0x73, 0xdf, 0x16, 0x0d, 0xd2, 0x08, 0x60, 0x8b, 0x9e, 0xfe, 0x06
 207:kuznyechik.c  ****     {0xc9, 0xe8, 0x81, 0x9d, 0xc7, 0x3b, 0xa5, 0xae, 0x50, 0xf5, 0xb5, 0x70, 0x56, 0x1a, 0x6a, 0x07
 208:kuznyechik.c  ****     {0xf6, 0x59, 0x36, 0x16, 0xe6, 0x05, 0x56, 0x89, 0xad, 0xfb, 0xa1, 0x80, 0x27, 0xaa, 0x2a, 0x08
 209:kuznyechik.c  ****     {0x98, 0xfb, 0x40, 0x64, 0x8a, 0x4d, 0x2c, 0x31, 0xf0, 0xdc, 0x1c, 0x90, 0xfa, 0x2e, 0xbe, 0x09
 210:kuznyechik.c  ****     {0x2a, 0xde, 0xda, 0xf2, 0x3e, 0x95, 0xa2, 0x3a, 0x17, 0xb5, 0x18, 0xa0, 0x5e, 0x61, 0xc1, 0x0a
 211:kuznyechik.c  ****     {0x44, 0x7c, 0xac, 0x80, 0x52, 0xdd, 0xd8, 0x82, 0x4a, 0x92, 0xa5, 0xb0, 0x83, 0xe5, 0x55, 0x0b
 212:kuznyechik.c  ****     {0x8d, 0x94, 0x2d, 0x1d, 0x95, 0xe6, 0x7d, 0x2c, 0x1a, 0x67, 0x10, 0xc0, 0xd5, 0xff, 0x3f, 0x0c
 213:kuznyechik.c  ****     {0xe3, 0x36, 0x5b, 0x6f, 0xf9, 0xae, 0x07, 0x94, 0x47, 0x40, 0xad, 0xd0, 0x08, 0x7b, 0xab, 0x0d
 214:kuznyechik.c  ****     {0x51, 0x13, 0xc1, 0xf9, 0x4d, 0x76, 0x89, 0x9f, 0xa0, 0x29, 0xa9, 0xe0, 0xac, 0x34, 0xd4, 0x0e
 215:kuznyechik.c  ****     {0x3f, 0xb1, 0xb7, 0x8b, 0x21, 0x3e, 0xf3, 0x27, 0xfd, 0x0e, 0x14, 0xf0, 0x71, 0xb0, 0x40, 0x0f
 216:kuznyechik.c  ****     {0x2f, 0xb2, 0x6c, 0x2c, 0x0f, 0x0a, 0xac, 0xd1, 0x99, 0x35, 0x81, 0xc3, 0x4e, 0x97, 0x54, 0x10
 217:kuznyechik.c  ****     {0x41, 0x10, 0x1a, 0x5e, 0x63, 0x42, 0xd6, 0x69, 0xc4, 0x12, 0x3c, 0xd3, 0x93, 0x13, 0xc0, 0x11
 218:kuznyechik.c  ****     {0xf3, 0x35, 0x80, 0xc8, 0xd7, 0x9a, 0x58, 0x62, 0x23, 0x7b, 0x38, 0xe3, 0x37, 0x5c, 0xbf, 0x12
 219:kuznyechik.c  ****     {0x9d, 0x97, 0xf6, 0xba, 0xbb, 0xd2, 0x22, 0xda, 0x7e, 0x5c, 0x85, 0xf3, 0xea, 0xd8, 0x2b, 0x13
 220:kuznyechik.c  ****     {0x54, 0x7f, 0x77, 0x27, 0x7c, 0xe9, 0x87, 0x74, 0x2e, 0xa9, 0x30, 0x83, 0xbc, 0xc2, 0x41, 0x14
 221:kuznyechik.c  ****     {0x3a, 0xdd, 0x01, 0x55, 0x10, 0xa1, 0xfd, 0xcc, 0x73, 0x8e, 0x8d, 0x93, 0x61, 0x46, 0xd5, 0x15
 222:kuznyechik.c  ****     {0x88, 0xf8, 0x9b, 0xc3, 0xa4, 0x79, 0x73, 0xc7, 0x94, 0xe7, 0x89, 0xa3, 0xc5, 0x09, 0xaa, 0x16
 223:kuznyechik.c  ****     {0xe6, 0x5a, 0xed, 0xb1, 0xc8, 0x31, 0x09, 0x7f, 0xc9, 0xc0, 0x34, 0xb3, 0x18, 0x8d, 0x3e, 0x17
 224:kuznyechik.c  ****     {0xd9, 0xeb, 0x5a, 0x3a, 0xe9, 0x0f, 0xfa, 0x58, 0x34, 0xce, 0x20, 0x43, 0x69, 0x3d, 0x7e, 0x18
 225:kuznyechik.c  ****     {0xb7, 0x49, 0x2c, 0x48, 0x85, 0x47, 0x80, 0xe0, 0x69, 0xe9, 0x9d, 0x53, 0xb4, 0xb9, 0xea, 0x19
 226:kuznyechik.c  ****     {0x05, 0x6c, 0xb6, 0xde, 0x31, 0x9f, 0x0e, 0xeb, 0x8e, 0x80, 0x99, 0x63, 0x10, 0xf6, 0x95, 0x1a
 227:kuznyechik.c  ****     {0x6b, 0xce, 0xc0, 0xac, 0x5d, 0xd7, 0x74, 0x53, 0xd3, 0xa7, 0x24, 0x73, 0xcd, 0x72, 0x01, 0x1b
 228:kuznyechik.c  ****     {0xa2, 0x26, 0x41, 0x31, 0x9a, 0xec, 0xd1, 0xfd, 0x83, 0x52, 0x91, 0x03, 0x9b, 0x68, 0x6b, 0x1c
 229:kuznyechik.c  ****     {0xcc, 0x84, 0x37, 0x43, 0xf6, 0xa4, 0xab, 0x45, 0xde, 0x75, 0x2c, 0x13, 0x46, 0xec, 0xff, 0x1d
 230:kuznyechik.c  ****     {0x7e, 0xa1, 0xad, 0xd5, 0x42, 0x7c, 0x25, 0x4e, 0x39, 0x1c, 0x28, 0x23, 0xe2, 0xa3, 0x80, 0x1e
 231:kuznyechik.c  ****     {0x10, 0x03, 0xdb, 0xa7, 0x2e, 0x34, 0x5f, 0xf6, 0x64, 0x3b, 0x95, 0x33, 0x3f, 0x27, 0x14, 0x1f
 232:kuznyechik.c  ****     {0x5e, 0xa7, 0xd8, 0x58, 0x1e, 0x14, 0x9b, 0x61, 0xf1, 0x6a, 0xc1, 0x45, 0x9c, 0xed, 0xa8, 0x20
 233:kuznyechik.c  **** 
 234:kuznyechik.c  **** static void AddRoundKey_KS(uint8_t round)
 235:kuznyechik.c  **** {
 236:kuznyechik.c  ****     uint8_t i;
 237:kuznyechik.c  ****     for(i=0;i<16;++i)
 238:kuznyechik.c  ****   {
 239:kuznyechik.c  ****     stateDuringKS[i] ^= C[round][i];
 240:kuznyechik.c  ****   }
 241:kuznyechik.c  **** }
 242:kuznyechik.c  **** 
 243:kuznyechik.c  **** 
 244:kuznyechik.c  **** static void Sstep_KS(void)
 245:kuznyechik.c  **** {
 246:kuznyechik.c  ****     uint8_t i;
 247:kuznyechik.c  ****     for(i = 0; i < 16; ++i)
 248:kuznyechik.c  ****   {
 249:kuznyechik.c  ****     stateDuringKS[i] = getSBoxValue(stateDuringKS[i]);
 250:kuznyechik.c  ****   }
 251:kuznyechik.c  **** }
 252:kuznyechik.c  **** 
 253:kuznyechik.c  **** static void Rstep_KS(void)
 254:kuznyechik.c  **** {
 255:kuznyechik.c  ****     uint8_t i;
 256:kuznyechik.c  ****     state_t stateCopy;
 257:kuznyechik.c  ****     for(i=0;i<16;i++)
 258:kuznyechik.c  ****     {
 259:kuznyechik.c  ****       stateCopy[i] = stateDuringKS[i];
 260:kuznyechik.c  ****     }
 261:kuznyechik.c  ****     for(i=0;i<16;i++)
 262:kuznyechik.c  ****     {
 263:kuznyechik.c  ****         if(i==0)
 264:kuznyechik.c  ****         {
 265:kuznyechik.c  ****             stateDuringKS[i] = mult_mod_poly[4][stateCopy[0]] ^ mult_mod_poly[2][stateCopy[1]] ^ mu
 266:kuznyechik.c  ****         }
 267:kuznyechik.c  ****         else
 268:kuznyechik.c  ****         {
 269:kuznyechik.c  ****             stateDuringKS[i] = stateCopy[i-1];
 270:kuznyechik.c  ****         }    
 271:kuznyechik.c  ****     }
 272:kuznyechik.c  **** }
 273:kuznyechik.c  **** 
 274:kuznyechik.c  **** 
 275:kuznyechik.c  **** static void Lstep_KS(void)
 276:kuznyechik.c  **** {
 277:kuznyechik.c  ****     uint8_t i;
 278:kuznyechik.c  ****     for(i=0;i<16;i++)
 279:kuznyechik.c  ****     {
 280:kuznyechik.c  ****         Rstep_KS();
 281:kuznyechik.c  ****     }
 282:kuznyechik.c  **** }
 283:kuznyechik.c  **** 
 284:kuznyechik.c  **** 
 285:kuznyechik.c  **** 
 286:kuznyechik.c  **** // This function produces the algorithm round keys. The round keys are used in each round to decryp
 287:kuznyechik.c  **** static void KeyExpansion(void)
 288:kuznyechik.c  **** {
 289:kuznyechik.c  ****   uint8_t i,j;
 290:kuznyechik.c  ****   uint8_t div = 0x2;
 291:kuznyechik.c  ****   state_t tempState2;
 292:kuznyechik.c  **** 
 293:kuznyechik.c  ****   // The first two round keys are the first and second half of the key.
 294:kuznyechik.c  ****   for(i=0;i<16;i++)
 295:kuznyechik.c  ****   {
 296:kuznyechik.c  ****     RoundKey[0][i] = Key[i];
 297:kuznyechik.c  ****   }
 298:kuznyechik.c  ****   
 299:kuznyechik.c  ****   for(i=0;i<16;i++)
 300:kuznyechik.c  ****   {
 301:kuznyechik.c  ****     RoundKey[1][i] = Key[i+16];  
 302:kuznyechik.c  ****   }
 303:kuznyechik.c  **** 
 304:kuznyechik.c  ****   for(i=2;i<65;i=i+2)
 305:kuznyechik.c  ****   {
 306:kuznyechik.c  ****     for(j=0; j<16; j++)
 307:kuznyechik.c  ****     {
 308:kuznyechik.c  ****       stateDuringKS[j] = RoundKey[i-2][j];
 309:kuznyechik.c  ****       tempState2[j] = RoundKey[i-1][j];
 310:kuznyechik.c  ****       RoundKey[i+1][j] = stateDuringKS[j];
 311:kuznyechik.c  ****     }
 312:kuznyechik.c  ****     uint8_t k = (uint8_t)((i/div)-1);
 313:kuznyechik.c  ****     AddRoundKey_KS(k);
 314:kuznyechik.c  ****     Sstep_KS();
 315:kuznyechik.c  ****     Lstep_KS();
 316:kuznyechik.c  **** 
 317:kuznyechik.c  ****     for(j=0; j<16; j++)
 318:kuznyechik.c  ****     {
 319:kuznyechik.c  ****         stateDuringKS[j] ^= tempState2[j];
 320:kuznyechik.c  ****     }
 321:kuznyechik.c  ****     for(j=0; j<16; j++)
 322:kuznyechik.c  ****     {
 323:kuznyechik.c  ****       RoundKey[i][j] = stateDuringKS[j];
 324:kuznyechik.c  ****     }
 325:kuznyechik.c  ****   }
 326:kuznyechik.c  ****   
 327:kuznyechik.c  ****   for(j=0; j<16; j++)
 328:kuznyechik.c  ****   {
 329:kuznyechik.c  ****     trueRoundKey[0][j] = RoundKey[0][j];
 330:kuznyechik.c  ****     trueRoundKey[1][j] = RoundKey[1][j];
 331:kuznyechik.c  ****     trueRoundKey[2][j] = RoundKey[16][j];
 332:kuznyechik.c  ****     trueRoundKey[3][j] = RoundKey[17][j];
 333:kuznyechik.c  ****     trueRoundKey[4][j] = RoundKey[32][j];
 334:kuznyechik.c  ****     trueRoundKey[5][j] = RoundKey[33][j];
 335:kuznyechik.c  ****     trueRoundKey[6][j] = RoundKey[48][j];
 336:kuznyechik.c  ****     trueRoundKey[7][j] = RoundKey[49][j];
 337:kuznyechik.c  ****     trueRoundKey[8][j] = RoundKey[64][j];
 338:kuznyechik.c  ****     trueRoundKey[9][j] = RoundKey[65][j];
 339:kuznyechik.c  ****   }
 340:kuznyechik.c  **** 
 341:kuznyechik.c  **** 
 342:kuznyechik.c  **** }
 343:kuznyechik.c  **** 
 344:kuznyechik.c  **** 
 345:kuznyechik.c  **** /*****************************************************************************/
 346:kuznyechik.c  **** /* X-STEP                                                                    */
 347:kuznyechik.c  **** /*****************************************************************************/
 348:kuznyechik.c  **** 
 349:kuznyechik.c  **** // This function adds the round key to state.
 350:kuznyechik.c  **** // The round key is added to the state by an XOR function.
 351:kuznyechik.c  **** static void AddRoundKey(uint8_t round)
 352:kuznyechik.c  **** {
  16               		.loc 1 352 0
  17               		.cfi_startproc
  18               	.LVL0:
  19               	/* prologue: function */
  20               	/* frame size = 0 */
  21               	/* stack size = 0 */
  22               	.L__stack_usage = 0
  23 0000 E091 0000 		lds r30,state
  24 0004 F091 0000 		lds r31,state+1
  25 0008 90E1      		ldi r25,lo8(16)
  26 000a 899F      		mul r24,r25
  27 000c B001      		movw r22,r0
  28 000e 1124      		clr __zero_reg__
 353:kuznyechik.c  ****   uint8_t i;
 354:kuznyechik.c  ****   for(i=0;i<16;++i)
 355:kuznyechik.c  ****   {
 356:kuznyechik.c  ****     (*state)[i] ^= trueRoundKey[round][i];
  29               		.loc 1 356 0
  30 0010 20E0      		ldi r18,0
  31 0012 30E0      		ldi r19,0
  32               	.LVL1:
  33               	.L2:
  34               		.loc 1 356 0 is_stmt 0 discriminator 3
  35 0014 D901      		movw r26,r18
  36 0016 A60F      		add r26,r22
  37 0018 B71F      		adc r27,r23
  38 001a A050      		subi r26,lo8(-(trueRoundKey))
  39 001c B040      		sbci r27,hi8(-(trueRoundKey))
  40 001e 4081      		ld r20,Z
  41 0020 9C91      		ld r25,X
  42 0022 9427      		eor r25,r20
  43 0024 9193      		st Z+,r25
  44               	.LVL2:
  45 0026 2F5F      		subi r18,-1
  46 0028 3F4F      		sbci r19,-1
  47               	.LVL3:
 354:kuznyechik.c  ****   {
  48               		.loc 1 354 0 is_stmt 1 discriminator 3
  49 002a 2031      		cpi r18,16
  50 002c 3105      		cpc r19,__zero_reg__
  51 002e 01F4      		brne .L2
  52               	/* epilogue start */
 357:kuznyechik.c  ****   }
 358:kuznyechik.c  **** }
  53               		.loc 1 358 0
  54 0030 0895      		ret
  55               		.cfi_endproc
  56               	.LFE8:
  58               	.global	kuznyechik_setkey
  60               	kuznyechik_setkey:
  61               	.LFB18:
 359:kuznyechik.c  **** 
 360:kuznyechik.c  **** /*****************************************************************************/
 361:kuznyechik.c  **** /* S-STEP                                                                    */
 362:kuznyechik.c  **** /*****************************************************************************/
 363:kuznyechik.c  **** 
 364:kuznyechik.c  **** // The SStep Function Substitutes the values in the current state with values in an S-box.
 365:kuznyechik.c  **** static void Sstep(void)
 366:kuznyechik.c  **** {
 367:kuznyechik.c  ****   uint8_t i;
 368:kuznyechik.c  ****   for(i = 0; i < 16; ++i)
 369:kuznyechik.c  ****   {
 370:kuznyechik.c  ****     (*state)[i] = getSBoxValue((*state)[i]);
 371:kuznyechik.c  ****   }
 372:kuznyechik.c  **** }
 373:kuznyechik.c  **** 
 374:kuznyechik.c  **** // Inverse Sstep
 375:kuznyechik.c  **** static void InvSstep(void)
 376:kuznyechik.c  **** {
 377:kuznyechik.c  ****   uint8_t i;
 378:kuznyechik.c  ****   for(i=0;i<16;++i)
 379:kuznyechik.c  ****   {
 380:kuznyechik.c  ****     (*state)[i] = getSBoxInvert((*state)[i]);
 381:kuznyechik.c  ****   }
 382:kuznyechik.c  **** }
 383:kuznyechik.c  **** 
 384:kuznyechik.c  **** /*****************************************************************************/
 385:kuznyechik.c  **** /* R-STEP                                                                    */
 386:kuznyechik.c  **** /*****************************************************************************/
 387:kuznyechik.c  **** 
 388:kuznyechik.c  **** static void Rstep(void)
 389:kuznyechik.c  **** {
 390:kuznyechik.c  ****     uint8_t i;
 391:kuznyechik.c  ****     state_t stateCopy;
 392:kuznyechik.c  ****     for(int j=0; j<16; j++)
 393:kuznyechik.c  ****     {
 394:kuznyechik.c  ****       stateCopy[j] = (*state)[j];
 395:kuznyechik.c  ****     }
 396:kuznyechik.c  ****     for(i=0;i<16;i++)
 397:kuznyechik.c  ****     {
 398:kuznyechik.c  ****         if(i==0)
 399:kuznyechik.c  ****         {
 400:kuznyechik.c  ****             (*state)[i] = mult_mod_poly[4][stateCopy[0]] ^ mult_mod_poly[2][stateCopy[1]] ^ mult_mo
 401:kuznyechik.c  ****         }
 402:kuznyechik.c  ****         else
 403:kuznyechik.c  ****         {
 404:kuznyechik.c  ****             (*state)[i] = stateCopy[i-1];
 405:kuznyechik.c  ****         }    
 406:kuznyechik.c  ****     }
 407:kuznyechik.c  **** }
 408:kuznyechik.c  **** 
 409:kuznyechik.c  **** static void InvRstep(void)
 410:kuznyechik.c  **** {
 411:kuznyechik.c  ****     uint8_t i;
 412:kuznyechik.c  ****     state_t stateCopy;
 413:kuznyechik.c  ****     for(int j=0; j<16; j++)
 414:kuznyechik.c  ****     {
 415:kuznyechik.c  ****       stateCopy[j] = (*state)[j];
 416:kuznyechik.c  ****     }
 417:kuznyechik.c  ****     for(i=0;i<16;i++)
 418:kuznyechik.c  ****     {
 419:kuznyechik.c  ****         if(i==15)
 420:kuznyechik.c  ****         {
 421:kuznyechik.c  ****             (*state)[i] = mult_mod_poly[4][stateCopy[1]] ^ mult_mod_poly[2][stateCopy[2]] ^ mult_mo
 422:kuznyechik.c  ****         }
 423:kuznyechik.c  ****         else
 424:kuznyechik.c  ****         {
 425:kuznyechik.c  ****             (*state)[i] = stateCopy[i+1];
 426:kuznyechik.c  ****         }
 427:kuznyechik.c  ****         
 428:kuznyechik.c  ****     }
 429:kuznyechik.c  **** }
 430:kuznyechik.c  **** 
 431:kuznyechik.c  **** 
 432:kuznyechik.c  **** /*****************************************************************************/
 433:kuznyechik.c  **** /* L-STEP                                                                    */
 434:kuznyechik.c  **** /*****************************************************************************/
 435:kuznyechik.c  **** 
 436:kuznyechik.c  **** static void Lstep(void)
 437:kuznyechik.c  **** {
 438:kuznyechik.c  ****     uint8_t i;
 439:kuznyechik.c  ****     for(i=0;i<16;i++)
 440:kuznyechik.c  ****     {
 441:kuznyechik.c  ****         Rstep();
 442:kuznyechik.c  ****     }
 443:kuznyechik.c  **** }
 444:kuznyechik.c  **** 
 445:kuznyechik.c  **** static void InvLstep(void)
 446:kuznyechik.c  **** {
 447:kuznyechik.c  ****     uint8_t i;
 448:kuznyechik.c  ****     for(i=0;i<16;i++)
 449:kuznyechik.c  ****     {
 450:kuznyechik.c  ****         InvRstep();
 451:kuznyechik.c  ****     }
 452:kuznyechik.c  **** }
 453:kuznyechik.c  **** 
 454:kuznyechik.c  **** 
 455:kuznyechik.c  **** /*****************************************************************************/
 456:kuznyechik.c  **** /* Encryption and Decrytion                                                  */
 457:kuznyechik.c  **** /*****************************************************************************/
 458:kuznyechik.c  **** 
 459:kuznyechik.c  **** // Cipher is the main function that encrypts the PlainText.
 460:kuznyechik.c  **** static void Cipher(void)
 461:kuznyechik.c  **** {
 462:kuznyechik.c  ****   uint8_t round = 0;
 463:kuznyechik.c  **** 
 464:kuznyechik.c  ****   for(round = 0; round < 9; round++)
 465:kuznyechik.c  ****   {
 466:kuznyechik.c  ****     AddRoundKey(round);
 467:kuznyechik.c  ****     Sstep();
 468:kuznyechik.c  ****     Lstep();
 469:kuznyechik.c  ****   }
 470:kuznyechik.c  ****   
 471:kuznyechik.c  ****   AddRoundKey(9);
 472:kuznyechik.c  **** 
 473:kuznyechik.c  **** }
 474:kuznyechik.c  **** 
 475:kuznyechik.c  **** static void InvCipher(void)
 476:kuznyechik.c  **** {
 477:kuznyechik.c  ****   uint8_t round=0;
 478:kuznyechik.c  **** 
 479:kuznyechik.c  ****   for(round=9;round>0;round--)
 480:kuznyechik.c  ****   {
 481:kuznyechik.c  ****     AddRoundKey(round);
 482:kuznyechik.c  ****     InvLstep();
 483:kuznyechik.c  ****     InvSstep();
 484:kuznyechik.c  ****   }
 485:kuznyechik.c  ****   AddRoundKey(0);
 486:kuznyechik.c  **** 
 487:kuznyechik.c  **** }
 488:kuznyechik.c  **** 
 489:kuznyechik.c  **** 
 490:kuznyechik.c  **** static void BlockCopy(uint8_t* output, const uint8_t* input)
 491:kuznyechik.c  **** {
 492:kuznyechik.c  ****   uint8_t i;
 493:kuznyechik.c  ****   for (i=0;i<STATELEN;i++)
 494:kuznyechik.c  ****   {
 495:kuznyechik.c  ****     output[i] = input[i];
 496:kuznyechik.c  ****   }
 497:kuznyechik.c  **** }
 498:kuznyechik.c  **** 
 499:kuznyechik.c  **** 
 500:kuznyechik.c  **** 
 501:kuznyechik.c  **** /*****************************************************************************/
 502:kuznyechik.c  **** /* Public functions:                                                         */
 503:kuznyechik.c  **** /*****************************************************************************/
 504:kuznyechik.c  **** 
 505:kuznyechik.c  **** void kuznyechik_setkey(uint8_t* key)
 506:kuznyechik.c  **** {
  62               		.loc 1 506 0
  63               		.cfi_startproc
  64               	.LVL4:
  65 0032 2F92      		push r2
  66               	.LCFI0:
  67               		.cfi_def_cfa_offset 4
  68               		.cfi_offset 2, -3
  69 0034 3F92      		push r3
  70               	.LCFI1:
  71               		.cfi_def_cfa_offset 5
  72               		.cfi_offset 3, -4
  73 0036 4F92      		push r4
  74               	.LCFI2:
  75               		.cfi_def_cfa_offset 6
  76               		.cfi_offset 4, -5
  77 0038 5F92      		push r5
  78               	.LCFI3:
  79               		.cfi_def_cfa_offset 7
  80               		.cfi_offset 5, -6
  81 003a 6F92      		push r6
  82               	.LCFI4:
  83               		.cfi_def_cfa_offset 8
  84               		.cfi_offset 6, -7
  85 003c 7F92      		push r7
  86               	.LCFI5:
  87               		.cfi_def_cfa_offset 9
  88               		.cfi_offset 7, -8
  89 003e 8F92      		push r8
  90               	.LCFI6:
  91               		.cfi_def_cfa_offset 10
  92               		.cfi_offset 8, -9
  93 0040 9F92      		push r9
  94               	.LCFI7:
  95               		.cfi_def_cfa_offset 11
  96               		.cfi_offset 9, -10
  97 0042 AF92      		push r10
  98               	.LCFI8:
  99               		.cfi_def_cfa_offset 12
 100               		.cfi_offset 10, -11
 101 0044 BF92      		push r11
 102               	.LCFI9:
 103               		.cfi_def_cfa_offset 13
 104               		.cfi_offset 11, -12
 105 0046 CF92      		push r12
 106               	.LCFI10:
 107               		.cfi_def_cfa_offset 14
 108               		.cfi_offset 12, -13
 109 0048 DF92      		push r13
 110               	.LCFI11:
 111               		.cfi_def_cfa_offset 15
 112               		.cfi_offset 13, -14
 113 004a EF92      		push r14
 114               	.LCFI12:
 115               		.cfi_def_cfa_offset 16
 116               		.cfi_offset 14, -15
 117 004c FF92      		push r15
 118               	.LCFI13:
 119               		.cfi_def_cfa_offset 17
 120               		.cfi_offset 15, -16
 121 004e 0F93      		push r16
 122               	.LCFI14:
 123               		.cfi_def_cfa_offset 18
 124               		.cfi_offset 16, -17
 125 0050 1F93      		push r17
 126               	.LCFI15:
 127               		.cfi_def_cfa_offset 19
 128               		.cfi_offset 17, -18
 129 0052 CF93      		push r28
 130               	.LCFI16:
 131               		.cfi_def_cfa_offset 20
 132               		.cfi_offset 28, -19
 133 0054 DF93      		push r29
 134               	.LCFI17:
 135               		.cfi_def_cfa_offset 21
 136               		.cfi_offset 29, -20
 137 0056 CDB7      		in r28,__SP_L__
 138 0058 DEB7      		in r29,__SP_H__
 139               	.LCFI18:
 140               		.cfi_def_cfa_register 28
 141 005a C154      		subi r28,65
 142 005c D109      		sbc r29,__zero_reg__
 143               	.LCFI19:
 144               		.cfi_def_cfa_offset 86
 145 005e CDBF      		out __SP_L__,r28
 146 0060 DEBF      		out __SP_H__,r29
 147               	/* prologue: function */
 148               	/* frame size = 65 */
 149               	/* stack size = 83 */
 150               	.L__stack_usage = 83
 507:kuznyechik.c  ****   Key = key;
 151               		.loc 1 507 0
 152 0062 8093 0000 		sts Key,r24
 153 0066 9093 0000 		sts Key+1,r25
 154               	.LVL5:
 155 006a AC01      		movw r20,r24
 156 006c 20E0      		ldi r18,lo8(RoundKey)
 157 006e 30E0      		ldi r19,hi8(RoundKey)
 158 0070 2296      		adiw r28,64-62
 159 0072 2EAF      		std Y+62,r18
 160 0074 3FAF      		std Y+63,r19
 161 0076 2297      		sbiw r28,64-62
 162 0078 20E0      		ldi r18,lo8(RoundKey+16)
 163 007a 30E0      		ldi r19,hi8(RoundKey+16)
 164 007c E0E0      		ldi r30,lo8(RoundKey)
 165 007e F0E0      		ldi r31,hi8(RoundKey)
 166               	.LVL6:
 167               	.L6:
 168               	.LBB21:
 169               	.LBB22:
 296:kuznyechik.c  ****   }
 170               		.loc 1 296 0
 171 0080 DA01      		movw r26,r20
 172 0082 6D91      		ld r22,X+
 173 0084 AD01      		movw r20,r26
 174               	.LVL7:
 175 0086 6193      		st Z+,r22
 176               	.LVL8:
 294:kuznyechik.c  ****   {
 177               		.loc 1 294 0
 178 0088 B0E0      		ldi r27,hi8(RoundKey+16)
 179 008a E030      		cpi r30,lo8(RoundKey+16)
 180 008c FB07      		cpc r31,r27
 181 008e 01F4      		brne .L6
 182 0090 FC01      		movw r30,r24
 183 0092 7096      		adiw r30,16
 184 0094 8096      		adiw r24,32
 185               	.LVL9:
 186               	.L7:
 301:kuznyechik.c  ****   }
 187               		.loc 1 301 0
 188 0096 4191      		ld r20,Z+
 189               	.LVL10:
 190 0098 D901      		movw r26,r18
 191 009a 4D93      		st X+,r20
 192 009c 9D01      		movw r18,r26
 193               	.LVL11:
 299:kuznyechik.c  ****   {
 194               		.loc 1 299 0
 195 009e 8E17      		cp r24,r30
 196 00a0 9F07      		cpc r25,r31
 197 00a2 01F4      		brne .L7
 198 00a4 30E0      		ldi r19,lo8(RoundKey)
 199 00a6 232E      		mov r2,r19
 200 00a8 30E0      		ldi r19,hi8(RoundKey)
 201 00aa 332E      		mov r3,r19
 202 00ac 42E0      		ldi r20,lo8(2)
 203 00ae 542E      		mov r5,r20
 204               	.LVL12:
 205               	.L8:
 206 00b0 20E0      		ldi r18,lo8(stateDuringKS)
 207 00b2 30E0      		ldi r19,hi8(stateDuringKS)
 208 00b4 2CA3      		std Y+36,r18
 209 00b6 3DA3      		std Y+37,r19
 210 00b8 5E01      		movw r10,r28
 211 00ba 31E1      		ldi r19,17
 212 00bc A30E      		add r10,r19
 213 00be B11C      		adc r11,__zero_reg__
 214               	.LBE22:
 215               	.LBE21:
 216               		.loc 1 507 0
 217 00c0 9501      		movw r18,r10
 218 00c2 80E0      		ldi r24,lo8(stateDuringKS)
 219 00c4 90E0      		ldi r25,hi8(stateDuringKS)
 220 00c6 F101      		movw r30,r2
 221               	.LVL13:
 222               	.L9:
 223               	.LBB37:
 224               	.LBB36:
 225               	.LBB23:
 308:kuznyechik.c  ****       tempState2[j] = RoundKey[i-1][j];
 226               		.loc 1 308 0
 227 00c8 4191      		ld r20,Z+
 228               	.LVL14:
 229 00ca DC01      		movw r26,r24
 230 00cc 4D93      		st X+,r20
 231 00ce CD01      		movw r24,r26
 309:kuznyechik.c  ****       RoundKey[i+1][j] = stateDuringKS[j];
 232               		.loc 1 309 0
 233 00d0 5785      		ldd r21,Z+15
 234 00d2 D901      		movw r26,r18
 235 00d4 5D93      		st X+,r21
 236 00d6 9D01      		movw r18,r26
 310:kuznyechik.c  ****     }
 237               		.loc 1 310 0
 238 00d8 47A7      		std Z+47,r20
 239               	.LVL15:
 306:kuznyechik.c  ****     {
 240               		.loc 1 306 0
 241 00da B0E0      		ldi r27,hi8(stateDuringKS+16)
 242 00dc 8030      		cpi r24,lo8(stateDuringKS+16)
 243 00de 9B07      		cpc r25,r27
 244 00e0 01F4      		brne .L9
 312:kuznyechik.c  ****     AddRoundKey_KS(k);
 245               		.loc 1 312 0
 246 00e2 852D      		mov r24,r5
 247 00e4 8695      		lsr r24
 248 00e6 8150      		subi r24,lo8(-(-1))
 249               	.LVL16:
 250 00e8 E0E1      		ldi r30,lo8(16)
 251               	.LVL17:
 252 00ea 8E9F      		mul r24,r30
 253 00ec C001      		movw r24,r0
 254 00ee 1124      		clr __zero_reg__
 255               	.LVL18:
 256 00f0 E0E0      		ldi r30,lo8(stateDuringKS)
 257 00f2 F0E0      		ldi r31,hi8(stateDuringKS)
 258 00f4 20E0      		ldi r18,0
 259 00f6 30E0      		ldi r19,0
 260               	.LVL19:
 261               	.L10:
 262               	.LBB24:
 263               	.LBB25:
 239:kuznyechik.c  ****   }
 264               		.loc 1 239 0
 265 00f8 B901      		movw r22,r18
 266 00fa 680F      		add r22,r24
 267 00fc 791F      		adc r23,r25
 268 00fe 6050      		subi r22,lo8(-(C))
 269 0100 7040      		sbci r23,hi8(-(C))
 270 0102 5081      		ld r21,Z
 271 0104 DB01      		movw r26,r22
 272 0106 4C91      		ld r20,X
 273 0108 4527      		eor r20,r21
 274 010a 4193      		st Z+,r20
 275               	.LVL20:
 276 010c 2F5F      		subi r18,-1
 277 010e 3F4F      		sbci r19,-1
 278               	.LVL21:
 237:kuznyechik.c  ****   {
 279               		.loc 1 237 0
 280 0110 2031      		cpi r18,16
 281 0112 3105      		cpc r19,__zero_reg__
 282 0114 01F4      		brne .L10
 283 0116 80E0      		ldi r24,lo8(stateDuringKS)
 284 0118 90E0      		ldi r25,hi8(stateDuringKS)
 285               	.LVL22:
 286               	.L11:
 287               	.LBE25:
 288               	.LBE24:
 289               	.LBB27:
 290               	.LBB28:
 291               	.LBB29:
 292               	.LBB30:
 117:kuznyechik.c  **** }
 293               		.loc 1 117 0
 294 011a FC01      		movw r30,r24
 295 011c 2081      		ld r18,Z
 296 011e A22F      		mov r26,r18
 297 0120 B0E0      		ldi r27,0
 298 0122 A050      		subi r26,lo8(-(sbox))
 299 0124 B040      		sbci r27,hi8(-(sbox))
 300               	.LBE30:
 301               	.LBE29:
 249:kuznyechik.c  ****   }
 302               		.loc 1 249 0
 303 0126 2C91      		ld r18,X
 304 0128 DC01      		movw r26,r24
 305 012a 2D93      		st X+,r18
 306 012c CD01      		movw r24,r26
 307               	.LVL23:
 247:kuznyechik.c  ****   {
 308               		.loc 1 247 0
 309 012e B0E0      		ldi r27,hi8(stateDuringKS+16)
 310 0130 8030      		cpi r24,lo8(stateDuringKS+16)
 311 0132 9B07      		cpc r25,r27
 312 0134 01F4      		brne .L11
 313 0136 E0E1      		ldi r30,lo8(16)
 314 0138 E9A3      		std Y+33,r30
 315               	.LVL24:
 316               	.L17:
 317 013a CE01      		movw r24,r28
 318 013c 0196      		adiw r24,1
 319               	.LBE28:
 320               	.LBE27:
 321               	.LBB31:
 322               	.LBB26:
 237:kuznyechik.c  ****   {
 323               		.loc 1 237 0
 324 013e E0E0      		ldi r30,lo8(stateDuringKS)
 325 0140 F0E0      		ldi r31,hi8(stateDuringKS)
 326               	.LVL25:
 327               	.L13:
 328               	.LBE26:
 329               	.LBE31:
 330               	.LBB32:
 331               	.LBB33:
 332               	.LBB34:
 333               	.LBB35:
 259:kuznyechik.c  ****     }
 334               		.loc 1 259 0
 335 0142 2191      		ld r18,Z+
 336               	.LVL26:
 337 0144 DC01      		movw r26,r24
 338 0146 2D93      		st X+,r18
 339 0148 CD01      		movw r24,r26
 340               	.LVL27:
 257:kuznyechik.c  ****     {
 341               		.loc 1 257 0
 342 014a B0E0      		ldi r27,hi8(stateDuringKS+16)
 343 014c E030      		cpi r30,lo8(stateDuringKS+16)
 344 014e FB07      		cpc r31,r27
 345 0150 01F4      		brne .L13
 265:kuznyechik.c  ****         }
 346               		.loc 1 265 0
 347 0152 C980      		ldd r12,Y+1
 348 0154 EC2D      		mov r30,r12
 349               	.LVL28:
 350 0156 F0E0      		ldi r31,0
 351 0158 EA80      		ldd r14,Y+2
 352 015a F12C      		mov r15,__zero_reg__
 353 015c 0B81      		ldd r16,Y+3
 354 015e 10E0      		ldi r17,0
 355 0160 AC81      		ldd r26,Y+4
 356 0162 B0E0      		ldi r27,0
 357 0164 6D81      		ldd r22,Y+5
 358 0166 70E0      		ldi r23,0
 359 0168 4E81      		ldd r20,Y+6
 360 016a 50E0      		ldi r21,0
 361 016c 2F81      		ldd r18,Y+7
 362 016e C22E      		mov r12,r18
 363 0170 D12C      		mov r13,__zero_reg__
 364 0172 CEAE      		std Y+62,r12
 365 0174 DFAE      		std Y+63,r13
 366 0176 8884      		ldd r8,Y+8
 367 0178 912C      		mov r9,__zero_reg__
 368 017a 8985      		ldd r24,Y+9
 369 017c 282F      		mov r18,r24
 370 017e 30E0      		ldi r19,0
 371 0180 2EA3      		std Y+38,r18
 372 0182 3FA3      		std Y+39,r19
 373 0184 8A85      		ldd r24,Y+10
 374 0186 C82E      		mov r12,r24
 375 0188 D12C      		mov r13,__zero_reg__
 376 018a C8A6      		std Y+40,r12
 377 018c D9A6      		std Y+41,r13
 378 018e 8B85      		ldd r24,Y+11
 379 0190 282F      		mov r18,r24
 380 0192 30E0      		ldi r19,0
 381 0194 2AA7      		std Y+42,r18
 382 0196 3BA7      		std Y+43,r19
 383 0198 6C84      		ldd r6,Y+12
 384 019a 862D      		mov r24,r6
 385 019c 90E0      		ldi r25,0
 386 019e 8CA7      		std Y+44,r24
 387 01a0 9DA7      		std Y+45,r25
 388 01a2 8D85      		ldd r24,Y+13
 389 01a4 C82E      		mov r12,r24
 390 01a6 D12C      		mov r13,__zero_reg__
 391 01a8 CEA6      		std Y+46,r12
 392 01aa DFA6      		std Y+47,r13
 393 01ac 8E85      		ldd r24,Y+14
 394 01ae 90E0      		ldi r25,0
 395 01b0 4F84      		ldd r4,Y+15
 396 01b2 242D      		mov r18,r4
 397 01b4 30E0      		ldi r19,0
 398 01b6 28AB      		std Y+48,r18
 399 01b8 39AB      		std Y+49,r19
 400 01ba 4888      		ldd r4,Y+16
 401 01bc C42C      		mov r12,r4
 402 01be D12C      		mov r13,__zero_reg__
 403 01c0 CAAA      		std Y+50,r12
 404 01c2 DBAA      		std Y+51,r13
 405 01c4 6E01      		movw r12,r28
 406 01c6 20E0      		ldi r18,lo8(stateDuringKS)
 407 01c8 622E      		mov r6,r18
 408 01ca 20E0      		ldi r18,hi8(stateDuringKS)
 409 01cc 722E      		mov r7,r18
 410 01ce 412C      		mov r4,__zero_reg__
 411 01d0 9F01      		movw r18,r30
 412 01d2 2050      		subi r18,lo8(-(mult_mod_poly+1024))
 413 01d4 3040      		sbci r19,hi8(-(mult_mod_poly+1024))
 414 01d6 2AA3      		std Y+34,r18
 415 01d8 3BA3      		std Y+35,r19
 416 01da F701      		movw r30,r14
 417 01dc E050      		subi r30,lo8(-(mult_mod_poly+512))
 418 01de F040      		sbci r31,hi8(-(mult_mod_poly+512))
 419 01e0 ECAB      		std Y+52,r30
 420 01e2 FDAB      		std Y+53,r31
 421 01e4 9801      		movw r18,r16
 422 01e6 2050      		subi r18,lo8(-(mult_mod_poly+768))
 423 01e8 3040      		sbci r19,hi8(-(mult_mod_poly+768))
 424 01ea 2EAB      		std Y+54,r18
 425 01ec 3FAB      		std Y+55,r19
 426 01ee FD01      		movw r30,r26
 427 01f0 E050      		subi r30,lo8(-(mult_mod_poly+256))
 428 01f2 F040      		sbci r31,hi8(-(mult_mod_poly+256))
 429 01f4 E8AF      		std Y+56,r30
 430 01f6 F9AF      		std Y+57,r31
 431 01f8 9B01      		movw r18,r22
 432 01fa 2050      		subi r18,lo8(-(mult_mod_poly+1536))
 433 01fc 3040      		sbci r19,hi8(-(mult_mod_poly+1536))
 434 01fe 2AAF      		std Y+58,r18
 435 0200 3BAF      		std Y+59,r19
 436 0202 DA01      		movw r26,r20
 437 0204 A050      		subi r26,lo8(-(mult_mod_poly+1280))
 438 0206 B040      		sbci r27,hi8(-(mult_mod_poly+1280))
 439 0208 ACAF      		std Y+60,r26
 440 020a BDAF      		std Y+61,r27
 441 020c EEAD      		ldd r30,Y+62
 442 020e FFAD      		ldd r31,Y+63
 443 0210 E050      		subi r30,lo8(-(mult_mod_poly))
 444 0212 F040      		sbci r31,hi8(-(mult_mod_poly))
 445 0214 EEAF      		std Y+62,r30
 446 0216 FFAF      		std Y+63,r31
 447 0218 9401      		movw r18,r8
 448 021a 2050      		subi r18,lo8(-(mult_mod_poly+1792))
 449 021c 3040      		sbci r19,hi8(-(mult_mod_poly+1792))
 450 021e 4901      		movw r8,r18
 451 0220 08A5      		ldd r16,Y+40
 452 0222 19A5      		ldd r17,Y+41
 453 0224 0050      		subi r16,lo8(-(mult_mod_poly+1280))
 454 0226 1040      		sbci r17,hi8(-(mult_mod_poly+1280))
 455 0228 6AA5      		ldd r22,Y+42
 456 022a 7BA5      		ldd r23,Y+43
 457 022c 6050      		subi r22,lo8(-(mult_mod_poly+1536))
 458 022e 7040      		sbci r23,hi8(-(mult_mod_poly+1536))
 459 0230 4CA5      		ldd r20,Y+44
 460 0232 5DA5      		ldd r21,Y+45
 461 0234 4050      		subi r20,lo8(-(mult_mod_poly+256))
 462 0236 5040      		sbci r21,hi8(-(mult_mod_poly+256))
 463 0238 2EA5      		ldd r18,Y+46
 464 023a 3FA5      		ldd r19,Y+47
 465 023c 2050      		subi r18,lo8(-(mult_mod_poly+768))
 466 023e 3040      		sbci r19,hi8(-(mult_mod_poly+768))
 467 0240 8050      		subi r24,lo8(-(mult_mod_poly+512))
 468 0242 9040      		sbci r25,hi8(-(mult_mod_poly+512))
 469               	.L16:
 470               	.LVL29:
 263:kuznyechik.c  ****         {
 471               		.loc 1 263 0
 472 0244 4110      		cpse r4,__zero_reg__
 473 0246 00C0      		rjmp .L14
 474               	.LVL30:
 265:kuznyechik.c  ****         }
 475               		.loc 1 265 0
 476 0248 AAA1      		ldd r26,Y+34
 477 024a BBA1      		ldd r27,Y+35
 478 024c FC91      		ld r31,X
 479 024e ACA9      		ldd r26,Y+52
 480 0250 BDA9      		ldd r27,Y+53
 481 0252 EC91      		ld r30,X
 482 0254 EF27      		eor r30,r31
 483 0256 AEA9      		ldd r26,Y+54
 484 0258 BFA9      		ldd r27,Y+55
 485 025a FC90      		ld r15,X
 486 025c FE26      		eor r15,r30
 487 025e A8AD      		ldd r26,Y+56
 488 0260 B9AD      		ldd r27,Y+57
 489 0262 EC91      		ld r30,X
 490 0264 FE26      		eor r15,r30
 491 0266 AAAD      		ldd r26,Y+58
 492 0268 BBAD      		ldd r27,Y+59
 493 026a EC91      		ld r30,X
 494 026c FE26      		eor r15,r30
 495 026e ACAD      		ldd r26,Y+60
 496 0270 BDAD      		ldd r27,Y+61
 497 0272 EC91      		ld r30,X
 498 0274 FE26      		eor r15,r30
 499 0276 AEAD      		ldd r26,Y+62
 500 0278 BFAD      		ldd r27,Y+63
 501 027a EC91      		ld r30,X
 502 027c FE26      		eor r15,r30
 503 027e D401      		movw r26,r8
 504 0280 EC91      		ld r30,X
 505 0282 FE26      		eor r15,r30
 506 0284 AEA1      		ldd r26,Y+38
 507 0286 BFA1      		ldd r27,Y+39
 508 0288 A050      		subi r26,lo8(-(mult_mod_poly))
 509 028a B040      		sbci r27,hi8(-(mult_mod_poly))
 510 028c AC91      		ld r26,X
 511 028e FA26      		eor r15,r26
 512 0290 D801      		movw r26,r16
 513 0292 EC91      		ld r30,X
 514 0294 FE26      		eor r15,r30
 515 0296 DB01      		movw r26,r22
 516 0298 EC91      		ld r30,X
 517 029a FE26      		eor r15,r30
 518 029c DA01      		movw r26,r20
 519 029e EC91      		ld r30,X
 520 02a0 FE26      		eor r15,r30
 521 02a2 D901      		movw r26,r18
 522 02a4 EC91      		ld r30,X
 523 02a6 FE26      		eor r15,r30
 524 02a8 DC01      		movw r26,r24
 525 02aa EC91      		ld r30,X
 526 02ac FE26      		eor r15,r30
 527 02ae A8A9      		ldd r26,Y+48
 528 02b0 B9A9      		ldd r27,Y+49
 529 02b2 A050      		subi r26,lo8(-(mult_mod_poly+1024))
 530 02b4 B040      		sbci r27,hi8(-(mult_mod_poly+1024))
 531 02b6 AC91      		ld r26,X
 532 02b8 FA26      		eor r15,r26
 533 02ba AAA9      		ldd r26,Y+50
 534 02bc BBA9      		ldd r27,Y+51
 535 02be A050      		subi r26,lo8(-(mult_mod_poly))
 536 02c0 B040      		sbci r27,hi8(-(mult_mod_poly))
 537 02c2 AC91      		ld r26,X
 538 02c4 FA26      		eor r15,r26
 539 02c6 F092 0000 		sts stateDuringKS,r15
 540 02ca 00C0      		rjmp .L15
 541               	.LVL31:
 542               	.L14:
 269:kuznyechik.c  ****         }    
 543               		.loc 1 269 0
 544 02cc D601      		movw r26,r12
 545 02ce EC91      		ld r30,X
 546 02d0 D301      		movw r26,r6
 547 02d2 EC93      		st X,r30
 548               	.LVL32:
 549               	.L15:
 261:kuznyechik.c  ****     {
 550               		.loc 1 261 0
 551 02d4 4394      		inc r4
 552               	.LVL33:
 553 02d6 BFEF      		ldi r27,-1
 554 02d8 CB1A      		sub r12,r27
 555 02da DB0A      		sbc r13,r27
 556 02dc EFEF      		ldi r30,-1
 557 02de 6E1A      		sub r6,r30
 558 02e0 7E0A      		sbc r7,r30
 559 02e2 F0E1      		ldi r31,lo8(16)
 560 02e4 4F12      		cpse r4,r31
 561 02e6 00C0      		rjmp .L16
 562               	.LVL34:
 563 02e8 29A1      		ldd r18,Y+33
 564 02ea 2150      		subi r18,lo8(-(-1))
 565 02ec 29A3      		std Y+33,r18
 566               	.LVL35:
 567               	.LBE35:
 568               	.LBE34:
 278:kuznyechik.c  ****     {
 569               		.loc 1 278 0
 570 02ee 2111      		cpse r18,__zero_reg__
 571 02f0 00C0      		rjmp .L17
 572 02f2 E0E0      		ldi r30,lo8(stateDuringKS)
 573 02f4 F0E0      		ldi r31,hi8(stateDuringKS)
 574               	.L18:
 575               	.LVL36:
 576               	.LBE33:
 577               	.LBE32:
 319:kuznyechik.c  ****     }
 578               		.loc 1 319 0
 579 02f6 D501      		movw r26,r10
 580 02f8 8D91      		ld r24,X+
 581 02fa 5D01      		movw r10,r26
 582 02fc 9081      		ld r25,Z
 583 02fe 8927      		eor r24,r25
 584 0300 8193      		st Z+,r24
 585               	.LVL37:
 317:kuznyechik.c  ****     {
 586               		.loc 1 317 0
 587 0302 B0E0      		ldi r27,hi8(stateDuringKS+16)
 588 0304 E030      		cpi r30,lo8(stateDuringKS+16)
 589 0306 FB07      		cpc r31,r27
 590 0308 01F4      		brne .L18
 591 030a 80E0      		ldi r24,0
 592 030c 90E0      		ldi r25,0
 593 030e 9101      		movw r18,r2
 594               	.LVL38:
 595 0310 205E      		subi r18,-32
 596 0312 3F4F      		sbci r19,-1
 597               	.LVL39:
 598               	.L19:
 323:kuznyechik.c  ****     }
 599               		.loc 1 323 0
 600 0314 ECA1      		ldd r30,Y+36
 601 0316 FDA1      		ldd r31,Y+37
 602 0318 4191      		ld r20,Z+
 603 031a ECA3      		std Y+36,r30
 604 031c FDA3      		std Y+37,r31
 605 031e D901      		movw r26,r18
 606 0320 A80F      		add r26,r24
 607 0322 B91F      		adc r27,r25
 608 0324 4C93      		st X,r20
 609               	.LVL40:
 610 0326 0196      		adiw r24,1
 611               	.LVL41:
 321:kuznyechik.c  ****     {
 612               		.loc 1 321 0
 613 0328 8031      		cpi r24,16
 614 032a 9105      		cpc r25,__zero_reg__
 615 032c 01F4      		brne .L19
 616               	.LBE23:
 304:kuznyechik.c  ****   {
 617               		.loc 1 304 0
 618 032e 5394      		inc r5
 619 0330 5394      		inc r5
 620               	.LVL42:
 621 0332 1901      		movw r2,r18
 622 0334 F2E4      		ldi r31,lo8(66)
 623 0336 5F12      		cpse r5,r31
 624 0338 00C0      		rjmp .L8
 625 033a A0E0      		ldi r26,lo8(trueRoundKey)
 626 033c B0E0      		ldi r27,hi8(trueRoundKey)
 627 033e 80E1      		ldi r24,lo8(16)
 628               	.LVL43:
 629               	.L21:
 329:kuznyechik.c  ****     trueRoundKey[1][j] = RoundKey[1][j];
 630               		.loc 1 329 0
 631 0340 2296      		adiw r28,64-62
 632 0342 EEAD      		ldd r30,Y+62
 633 0344 FFAD      		ldd r31,Y+63
 634 0346 2297      		sbiw r28,64-62
 635 0348 9081      		ld r25,Z
 636 034a 9C93      		st X,r25
 330:kuznyechik.c  ****     trueRoundKey[2][j] = RoundKey[16][j];
 637               		.loc 1 330 0
 638 034c 9089      		ldd r25,Z+16
 639 034e 5096      		adiw r26,16
 640 0350 9C93      		st X,r25
 641 0352 5097      		sbiw r26,16
 331:kuznyechik.c  ****     trueRoundKey[3][j] = RoundKey[17][j];
 642               		.loc 1 331 0
 643 0354 9F01      		movw r18,r30
 644 0356 3395      		inc r19
 645 0358 F901      		movw r30,r18
 646 035a 9081      		ld r25,Z
 647 035c 9096      		adiw r26,32
 648 035e 9C93      		st X,r25
 649 0360 9097      		sbiw r26,32
 332:kuznyechik.c  ****     trueRoundKey[4][j] = RoundKey[32][j];
 650               		.loc 1 332 0
 651 0362 2296      		adiw r28,64-62
 652 0364 2EAD      		ldd r18,Y+62
 653 0366 3FAD      		ldd r19,Y+63
 654 0368 2297      		sbiw r28,64-62
 655 036a 205F      		subi r18,-16
 656 036c 3E4F      		sbci r19,-2
 657 036e F901      		movw r30,r18
 658 0370 9081      		ld r25,Z
 659 0372 D096      		adiw r26,48
 660 0374 9C93      		st X,r25
 661 0376 D097      		sbiw r26,48
 333:kuznyechik.c  ****     trueRoundKey[5][j] = RoundKey[33][j];
 662               		.loc 1 333 0
 663 0378 9D01      		movw r18,r26
 664 037a 205C      		subi r18,-64
 665 037c 3F4F      		sbci r19,-1
 666 037e 2296      		adiw r28,64-62
 667 0380 4EAD      		ldd r20,Y+62
 668 0382 5FAD      		ldd r21,Y+63
 669 0384 2297      		sbiw r28,64-62
 670 0386 5E5F      		subi r21,-2
 671 0388 FA01      		movw r30,r20
 672 038a 9081      		ld r25,Z
 673 038c F901      		movw r30,r18
 674 038e 9083      		st Z,r25
 334:kuznyechik.c  ****     trueRoundKey[6][j] = RoundKey[48][j];
 675               		.loc 1 334 0
 676 0390 205F      		subi r18,-16
 677 0392 3F4F      		sbci r19,-1
 678 0394 2296      		adiw r28,64-62
 679 0396 4EAD      		ldd r20,Y+62
 680 0398 5FAD      		ldd r21,Y+63
 681 039a 2297      		sbiw r28,64-62
 682 039c 405F      		subi r20,-16
 683 039e 5D4F      		sbci r21,-3
 684 03a0 FA01      		movw r30,r20
 685 03a2 9081      		ld r25,Z
 686 03a4 F901      		movw r30,r18
 687 03a6 9083      		st Z,r25
 335:kuznyechik.c  ****     trueRoundKey[7][j] = RoundKey[49][j];
 688               		.loc 1 335 0
 689 03a8 205F      		subi r18,-16
 690 03aa 3F4F      		sbci r19,-1
 691 03ac 2296      		adiw r28,64-62
 692 03ae 4EAD      		ldd r20,Y+62
 693 03b0 5FAD      		ldd r21,Y+63
 694 03b2 2297      		sbiw r28,64-62
 695 03b4 5D5F      		subi r21,-3
 696 03b6 FA01      		movw r30,r20
 697 03b8 9081      		ld r25,Z
 698 03ba F901      		movw r30,r18
 699 03bc 9083      		st Z,r25
 336:kuznyechik.c  ****     trueRoundKey[8][j] = RoundKey[64][j];
 700               		.loc 1 336 0
 701 03be 205F      		subi r18,-16
 702 03c0 3F4F      		sbci r19,-1
 703 03c2 2296      		adiw r28,64-62
 704 03c4 4EAD      		ldd r20,Y+62
 705 03c6 5FAD      		ldd r21,Y+63
 706 03c8 2297      		sbiw r28,64-62
 707 03ca 405F      		subi r20,-16
 708 03cc 5C4F      		sbci r21,-4
 709 03ce FA01      		movw r30,r20
 710 03d0 9081      		ld r25,Z
 711 03d2 F901      		movw r30,r18
 712 03d4 9083      		st Z,r25
 337:kuznyechik.c  ****     trueRoundKey[9][j] = RoundKey[65][j];
 713               		.loc 1 337 0
 714 03d6 205F      		subi r18,-16
 715 03d8 3F4F      		sbci r19,-1
 716 03da 2296      		adiw r28,64-62
 717 03dc 4EAD      		ldd r20,Y+62
 718 03de 5FAD      		ldd r21,Y+63
 719 03e0 2297      		sbiw r28,64-62
 720 03e2 5C5F      		subi r21,-4
 721 03e4 FA01      		movw r30,r20
 722 03e6 9081      		ld r25,Z
 723 03e8 F901      		movw r30,r18
 724 03ea 9083      		st Z,r25
 338:kuznyechik.c  ****   }
 725               		.loc 1 338 0
 726 03ec 205F      		subi r18,-16
 727 03ee 3F4F      		sbci r19,-1
 728 03f0 2296      		adiw r28,64-62
 729 03f2 4EAD      		ldd r20,Y+62
 730 03f4 5FAD      		ldd r21,Y+63
 731 03f6 2297      		sbiw r28,64-62
 732 03f8 405F      		subi r20,-16
 733 03fa 5B4F      		sbci r21,-5
 734 03fc FA01      		movw r30,r20
 735 03fe 9081      		ld r25,Z
 736 0400 F901      		movw r30,r18
 737 0402 9083      		st Z,r25
 738               	.LVL44:
 739 0404 8150      		subi r24,lo8(-(-1))
 740 0406 2296      		adiw r28,64-62
 741 0408 2EAD      		ldd r18,Y+62
 742 040a 3FAD      		ldd r19,Y+63
 743 040c 2297      		sbiw r28,64-62
 744 040e 2F5F      		subi r18,-1
 745 0410 3F4F      		sbci r19,-1
 746 0412 2296      		adiw r28,64-62
 747 0414 2EAF      		std Y+62,r18
 748 0416 3FAF      		std Y+63,r19
 749 0418 2297      		sbiw r28,64-62
 750               	.LVL45:
 751 041a 1196      		adiw r26,1
 327:kuznyechik.c  ****   {
 752               		.loc 1 327 0
 753 041c 8111      		cpse r24,__zero_reg__
 754 041e 00C0      		rjmp .L21
 755               	/* epilogue start */
 756               	.LBE36:
 757               	.LBE37:
 508:kuznyechik.c  **** 
 509:kuznyechik.c  ****   KeyExpansion();
 510:kuznyechik.c  **** }
 758               		.loc 1 510 0
 759 0420 CF5B      		subi r28,-65
 760 0422 DF4F      		sbci r29,-1
 761 0424 CDBF      		out __SP_L__,r28
 762 0426 DEBF      		out __SP_H__,r29
 763 0428 DF91      		pop r29
 764 042a CF91      		pop r28
 765 042c 1F91      		pop r17
 766 042e 0F91      		pop r16
 767 0430 FF90      		pop r15
 768 0432 EF90      		pop r14
 769 0434 DF90      		pop r13
 770 0436 CF90      		pop r12
 771 0438 BF90      		pop r11
 772 043a AF90      		pop r10
 773 043c 9F90      		pop r9
 774 043e 8F90      		pop r8
 775 0440 7F90      		pop r7
 776 0442 6F90      		pop r6
 777 0444 5F90      		pop r5
 778               	.LVL46:
 779 0446 4F90      		pop r4
 780 0448 3F90      		pop r3
 781 044a 2F90      		pop r2
 782 044c 0895      		ret
 783               		.cfi_endproc
 784               	.LFE18:
 786               	.global	kuznyechik_crypto
 788               	kuznyechik_crypto:
 789               	.LFB19:
 511:kuznyechik.c  **** 
 512:kuznyechik.c  **** void kuznyechik_crypto(uint8_t* input)
 513:kuznyechik.c  **** {
 790               		.loc 1 513 0
 791               		.cfi_startproc
 792               	.LVL47:
 793 044e 2F92      		push r2
 794               	.LCFI20:
 795               		.cfi_def_cfa_offset 4
 796               		.cfi_offset 2, -3
 797 0450 3F92      		push r3
 798               	.LCFI21:
 799               		.cfi_def_cfa_offset 5
 800               		.cfi_offset 3, -4
 801 0452 4F92      		push r4
 802               	.LCFI22:
 803               		.cfi_def_cfa_offset 6
 804               		.cfi_offset 4, -5
 805 0454 5F92      		push r5
 806               	.LCFI23:
 807               		.cfi_def_cfa_offset 7
 808               		.cfi_offset 5, -6
 809 0456 6F92      		push r6
 810               	.LCFI24:
 811               		.cfi_def_cfa_offset 8
 812               		.cfi_offset 6, -7
 813 0458 7F92      		push r7
 814               	.LCFI25:
 815               		.cfi_def_cfa_offset 9
 816               		.cfi_offset 7, -8
 817 045a 8F92      		push r8
 818               	.LCFI26:
 819               		.cfi_def_cfa_offset 10
 820               		.cfi_offset 8, -9
 821 045c 9F92      		push r9
 822               	.LCFI27:
 823               		.cfi_def_cfa_offset 11
 824               		.cfi_offset 9, -10
 825 045e AF92      		push r10
 826               	.LCFI28:
 827               		.cfi_def_cfa_offset 12
 828               		.cfi_offset 10, -11
 829 0460 BF92      		push r11
 830               	.LCFI29:
 831               		.cfi_def_cfa_offset 13
 832               		.cfi_offset 11, -12
 833 0462 CF92      		push r12
 834               	.LCFI30:
 835               		.cfi_def_cfa_offset 14
 836               		.cfi_offset 12, -13
 837 0464 DF92      		push r13
 838               	.LCFI31:
 839               		.cfi_def_cfa_offset 15
 840               		.cfi_offset 13, -14
 841 0466 EF92      		push r14
 842               	.LCFI32:
 843               		.cfi_def_cfa_offset 16
 844               		.cfi_offset 14, -15
 845 0468 FF92      		push r15
 846               	.LCFI33:
 847               		.cfi_def_cfa_offset 17
 848               		.cfi_offset 15, -16
 849 046a 0F93      		push r16
 850               	.LCFI34:
 851               		.cfi_def_cfa_offset 18
 852               		.cfi_offset 16, -17
 853 046c 1F93      		push r17
 854               	.LCFI35:
 855               		.cfi_def_cfa_offset 19
 856               		.cfi_offset 17, -18
 857 046e CF93      		push r28
 858               	.LCFI36:
 859               		.cfi_def_cfa_offset 20
 860               		.cfi_offset 28, -19
 861 0470 DF93      		push r29
 862               	.LCFI37:
 863               		.cfi_def_cfa_offset 21
 864               		.cfi_offset 29, -20
 865 0472 CDB7      		in r28,__SP_L__
 866 0474 DEB7      		in r29,__SP_H__
 867               	.LCFI38:
 868               		.cfi_def_cfa_register 28
 869 0476 AF97      		sbiw r28,47
 870               	.LCFI39:
 871               		.cfi_def_cfa_offset 68
 872 0478 CDBF      		out __SP_L__,r28
 873 047a DEBF      		out __SP_H__,r29
 874               	/* prologue: function */
 875               	/* frame size = 47 */
 876               	/* stack size = 65 */
 877               	.L__stack_usage = 65
 878 047c 8C01      		movw r16,r24
 514:kuznyechik.c  ****   state = (state_t*)input;
 879               		.loc 1 514 0
 880 047e 8093 0000 		sts state,r24
 881 0482 9093 0000 		sts state+1,r25
 882               	.LVL48:
 883               	.LBB49:
 884               	.LBB50:
 464:kuznyechik.c  ****   {
 885               		.loc 1 464 0
 886 0486 F12C      		mov r15,__zero_reg__
 887 0488 1C01      		movw r2,r24
 888 048a 20E1      		ldi r18,16
 889 048c 220E      		add r2,r18
 890 048e 311C      		adc r3,__zero_reg__
 891 0490 CE01      		movw r24,r28
 892               	.LVL49:
 893 0492 4196      		adiw r24,17
 894 0494 898B      		std Y+17,r24
 895 0496 9A8B      		std Y+18,r25
 896               	.LVL50:
 897               	.L42:
 466:kuznyechik.c  ****     Sstep();
 898               		.loc 1 466 0
 899 0498 8F2D      		mov r24,r15
 900 049a 0E94 0000 		call AddRoundKey
 901               	.LVL51:
 902 049e D801      		movw r26,r16
 903               	.LVL52:
 904               	.L34:
 905               	.LBB51:
 906               	.LBB52:
 907               	.LBB53:
 908               	.LBB54:
 117:kuznyechik.c  **** }
 909               		.loc 1 117 0
 910 04a0 EC91      		ld r30,X
 911 04a2 F0E0      		ldi r31,0
 912 04a4 E050      		subi r30,lo8(-(sbox))
 913 04a6 F040      		sbci r31,hi8(-(sbox))
 914 04a8 8081      		ld r24,Z
 915               	.LVL53:
 916               	.LBE54:
 917               	.LBE53:
 370:kuznyechik.c  ****   }
 918               		.loc 1 370 0
 919 04aa 8D93      		st X+,r24
 920               	.LVL54:
 368:kuznyechik.c  ****   {
 921               		.loc 1 368 0
 922 04ac A215      		cp r26,r2
 923 04ae B305      		cpc r27,r3
 924 04b0 01F4      		brne .L34
 925 04b2 90E1      		ldi r25,lo8(16)
 926 04b4 9B8B      		std Y+19,r25
 927               	.LVL55:
 928               	.L40:
 929 04b6 FE01      		movw r30,r28
 930 04b8 3196      		adiw r30,1
 931               	.LBE52:
 932               	.LBE51:
 466:kuznyechik.c  ****     Sstep();
 933               		.loc 1 466 0
 934 04ba D801      		movw r26,r16
 935               	.LVL56:
 936               	.L36:
 937               	.LBB55:
 938               	.LBB56:
 939               	.LBB57:
 940               	.LBB58:
 941               	.LBB59:
 394:kuznyechik.c  ****     }
 942               		.loc 1 394 0
 943 04bc 8D91      		ld r24,X+
 944               	.LVL57:
 945 04be 8193      		st Z+,r24
 946               	.LVL58:
 392:kuznyechik.c  ****     {
 947               		.loc 1 392 0
 948 04c0 6988      		ldd r6,Y+17
 949 04c2 7A88      		ldd r7,Y+18
 950 04c4 6E16      		cp r6,r30
 951 04c6 7F06      		cpc r7,r31
 952 04c8 01F4      		brne .L36
 953               	.LBE59:
 400:kuznyechik.c  ****         }
 954               		.loc 1 400 0
 955 04ca A980      		ldd r10,Y+1
 956 04cc B12C      		mov r11,__zero_reg__
 957 04ce CA80      		ldd r12,Y+2
 958 04d0 D12C      		mov r13,__zero_reg__
 959 04d2 AB81      		ldd r26,Y+3
 960               	.LVL59:
 961 04d4 B0E0      		ldi r27,0
 962 04d6 EC81      		ldd r30,Y+4
 963 04d8 F0E0      		ldi r31,0
 964 04da 6D81      		ldd r22,Y+5
 965 04dc 70E0      		ldi r23,0
 966 04de 4E81      		ldd r20,Y+6
 967 04e0 50E0      		ldi r21,0
 968 04e2 2F81      		ldd r18,Y+7
 969 04e4 30E0      		ldi r19,0
 970 04e6 8885      		ldd r24,Y+8
 971 04e8 882E      		mov r8,r24
 972 04ea 912C      		mov r9,__zero_reg__
 973 04ec 8EA6      		std Y+46,r8
 974 04ee 9FA6      		std Y+47,r9
 975 04f0 E984      		ldd r14,Y+9
 976 04f2 8E2D      		mov r24,r14
 977 04f4 90E0      		ldi r25,0
 978 04f6 8C8B      		std Y+20,r24
 979 04f8 9D8B      		std Y+21,r25
 980 04fa 6A84      		ldd r6,Y+10
 981 04fc 862C      		mov r8,r6
 982 04fe 912C      		mov r9,__zero_reg__
 983 0500 8E8A      		std Y+22,r8
 984 0502 9F8A      		std Y+23,r9
 985 0504 EB84      		ldd r14,Y+11
 986 0506 8E2D      		mov r24,r14
 987 0508 90E0      		ldi r25,0
 988 050a 888F      		std Y+24,r24
 989 050c 998F      		std Y+25,r25
 990 050e EC84      		ldd r14,Y+12
 991 0510 6E2C      		mov r6,r14
 992 0512 712C      		mov r7,__zero_reg__
 993 0514 6A8E      		std Y+26,r6
 994 0516 7B8E      		std Y+27,r7
 995 0518 4D84      		ldd r4,Y+13
 996 051a 842C      		mov r8,r4
 997 051c 912C      		mov r9,__zero_reg__
 998 051e 8C8E      		std Y+28,r8
 999 0520 9D8E      		std Y+29,r9
 1000 0522 8E84      		ldd r8,Y+14
 1001 0524 912C      		mov r9,__zero_reg__
 1002 0526 EF84      		ldd r14,Y+15
 1003 0528 8E2D      		mov r24,r14
 1004 052a 90E0      		ldi r25,0
 1005 052c 8E8F      		std Y+30,r24
 1006 052e 9F8F      		std Y+31,r25
 1007 0530 E888      		ldd r14,Y+16
 1008 0532 6E2C      		mov r6,r14
 1009 0534 712C      		mov r7,__zero_reg__
 1010 0536 68A2      		std Y+32,r6
 1011 0538 79A2      		std Y+33,r7
 1012 053a 2E01      		movw r4,r28
 1013 053c 3801      		movw r6,r16
 1014 053e E12C      		mov r14,__zero_reg__
 1015 0540 C501      		movw r24,r10
 1016 0542 8050      		subi r24,lo8(-(mult_mod_poly+1024))
 1017 0544 9040      		sbci r25,hi8(-(mult_mod_poly+1024))
 1018 0546 8AA3      		std Y+34,r24
 1019 0548 9BA3      		std Y+35,r25
 1020 054a C601      		movw r24,r12
 1021 054c 8050      		subi r24,lo8(-(mult_mod_poly+512))
 1022 054e 9040      		sbci r25,hi8(-(mult_mod_poly+512))
 1023 0550 8CA3      		std Y+36,r24
 1024 0552 9DA3      		std Y+37,r25
 1025 0554 CD01      		movw r24,r26
 1026 0556 8050      		subi r24,lo8(-(mult_mod_poly+768))
 1027 0558 9040      		sbci r25,hi8(-(mult_mod_poly+768))
 1028 055a 8EA3      		std Y+38,r24
 1029 055c 9FA3      		std Y+39,r25
 1030 055e CF01      		movw r24,r30
 1031 0560 8050      		subi r24,lo8(-(mult_mod_poly+256))
 1032 0562 9040      		sbci r25,hi8(-(mult_mod_poly+256))
 1033 0564 88A7      		std Y+40,r24
 1034 0566 99A7      		std Y+41,r25
 1035 0568 FB01      		movw r30,r22
 1036 056a E050      		subi r30,lo8(-(mult_mod_poly+1536))
 1037 056c F040      		sbci r31,hi8(-(mult_mod_poly+1536))
 1038 056e EAA7      		std Y+42,r30
 1039 0570 FBA7      		std Y+43,r31
 1040 0572 CA01      		movw r24,r20
 1041 0574 8050      		subi r24,lo8(-(mult_mod_poly+1280))
 1042 0576 9040      		sbci r25,hi8(-(mult_mod_poly+1280))
 1043 0578 8CA7      		std Y+44,r24
 1044 057a 9DA7      		std Y+45,r25
 1045 057c F901      		movw r30,r18
 1046 057e E050      		subi r30,lo8(-(mult_mod_poly))
 1047 0580 F040      		sbci r31,hi8(-(mult_mod_poly))
 1048 0582 5F01      		movw r10,r30
 1049 0584 8EA5      		ldd r24,Y+46
 1050 0586 9FA5      		ldd r25,Y+47
 1051 0588 8050      		subi r24,lo8(-(mult_mod_poly+1792))
 1052 058a 9040      		sbci r25,hi8(-(mult_mod_poly+1792))
 1053 058c 6C01      		movw r12,r24
 1054 058e 6E89      		ldd r22,Y+22
 1055 0590 7F89      		ldd r23,Y+23
 1056 0592 6050      		subi r22,lo8(-(mult_mod_poly+1280))
 1057 0594 7040      		sbci r23,hi8(-(mult_mod_poly+1280))
 1058 0596 488D      		ldd r20,Y+24
 1059 0598 598D      		ldd r21,Y+25
 1060 059a 4050      		subi r20,lo8(-(mult_mod_poly+1536))
 1061 059c 5040      		sbci r21,hi8(-(mult_mod_poly+1536))
 1062 059e EA8D      		ldd r30,Y+26
 1063 05a0 FB8D      		ldd r31,Y+27
 1064 05a2 E050      		subi r30,lo8(-(mult_mod_poly+256))
 1065 05a4 F040      		sbci r31,hi8(-(mult_mod_poly+256))
 1066 05a6 EE8B      		std Y+22,r30
 1067 05a8 FF8B      		std Y+23,r31
 1068 05aa AC8D      		ldd r26,Y+28
 1069 05ac BD8D      		ldd r27,Y+29
 1070 05ae A050      		subi r26,lo8(-(mult_mod_poly+768))
 1071 05b0 B040      		sbci r27,hi8(-(mult_mod_poly+768))
 1072 05b2 C401      		movw r24,r8
 1073 05b4 8050      		subi r24,lo8(-(mult_mod_poly+512))
 1074 05b6 9040      		sbci r25,hi8(-(mult_mod_poly+512))
 1075               	.L39:
 1076               	.LVL60:
 398:kuznyechik.c  ****         {
 1077               		.loc 1 398 0
 1078 05b8 E110      		cpse r14,__zero_reg__
 1079 05ba 00C0      		rjmp .L37
 1080               	.LVL61:
 400:kuznyechik.c  ****         }
 1081               		.loc 1 400 0
 1082 05bc EAA1      		ldd r30,Y+34
 1083 05be FBA1      		ldd r31,Y+35
 1084 05c0 2081      		ld r18,Z
 1085 05c2 ECA1      		ldd r30,Y+36
 1086 05c4 FDA1      		ldd r31,Y+37
 1087 05c6 3081      		ld r19,Z
 1088 05c8 2327      		eor r18,r19
 1089 05ca EEA1      		ldd r30,Y+38
 1090 05cc FFA1      		ldd r31,Y+39
 1091 05ce 9080      		ld r9,Z
 1092 05d0 9226      		eor r9,r18
 1093 05d2 E8A5      		ldd r30,Y+40
 1094 05d4 F9A5      		ldd r31,Y+41
 1095 05d6 3081      		ld r19,Z
 1096 05d8 9326      		eor r9,r19
 1097 05da EAA5      		ldd r30,Y+42
 1098 05dc FBA5      		ldd r31,Y+43
 1099 05de 3081      		ld r19,Z
 1100 05e0 9326      		eor r9,r19
 1101 05e2 ECA5      		ldd r30,Y+44
 1102 05e4 FDA5      		ldd r31,Y+45
 1103 05e6 3081      		ld r19,Z
 1104 05e8 9326      		eor r9,r19
 1105 05ea F501      		movw r30,r10
 1106 05ec 3081      		ld r19,Z
 1107 05ee 9326      		eor r9,r19
 1108 05f0 F601      		movw r30,r12
 1109 05f2 2081      		ld r18,Z
 1110 05f4 9226      		eor r9,r18
 1111 05f6 2C89      		ldd r18,Y+20
 1112 05f8 3D89      		ldd r19,Y+21
 1113 05fa 2050      		subi r18,lo8(-(mult_mod_poly))
 1114 05fc 3040      		sbci r19,hi8(-(mult_mod_poly))
 1115 05fe F901      		movw r30,r18
 1116 0600 2081      		ld r18,Z
 1117 0602 9226      		eor r9,r18
 1118 0604 FB01      		movw r30,r22
 1119 0606 2081      		ld r18,Z
 1120 0608 9226      		eor r9,r18
 1121 060a FA01      		movw r30,r20
 1122 060c 2081      		ld r18,Z
 1123 060e 9226      		eor r9,r18
 1124 0610 EE89      		ldd r30,Y+22
 1125 0612 FF89      		ldd r31,Y+23
 1126 0614 2081      		ld r18,Z
 1127 0616 9226      		eor r9,r18
 1128 0618 2C91      		ld r18,X
 1129 061a 9226      		eor r9,r18
 1130 061c FC01      		movw r30,r24
 1131 061e 2081      		ld r18,Z
 1132 0620 9226      		eor r9,r18
 1133 0622 2E8D      		ldd r18,Y+30
 1134 0624 3F8D      		ldd r19,Y+31
 1135 0626 2050      		subi r18,lo8(-(mult_mod_poly+1024))
 1136 0628 3040      		sbci r19,hi8(-(mult_mod_poly+1024))
 1137 062a F901      		movw r30,r18
 1138 062c 2081      		ld r18,Z
 1139 062e 9226      		eor r9,r18
 1140 0630 28A1      		ldd r18,Y+32
 1141 0632 39A1      		ldd r19,Y+33
 1142 0634 2050      		subi r18,lo8(-(mult_mod_poly))
 1143 0636 3040      		sbci r19,hi8(-(mult_mod_poly))
 1144 0638 F901      		movw r30,r18
 1145 063a 2081      		ld r18,Z
 1146 063c 9226      		eor r9,r18
 1147 063e F801      		movw r30,r16
 1148 0640 9082      		st Z,r9
 1149 0642 00C0      		rjmp .L38
 1150               	.LVL62:
 1151               	.L37:
 404:kuznyechik.c  ****         }    
 1152               		.loc 1 404 0
 1153 0644 F201      		movw r30,r4
 1154 0646 2081      		ld r18,Z
 1155 0648 F301      		movw r30,r6
 1156 064a 2083      		st Z,r18
 1157               	.LVL63:
 1158               	.L38:
 396:kuznyechik.c  ****     {
 1159               		.loc 1 396 0
 1160 064c E394      		inc r14
 1161               	.LVL64:
 1162 064e FFEF      		ldi r31,-1
 1163 0650 4F1A      		sub r4,r31
 1164 0652 5F0A      		sbc r5,r31
 1165 0654 2FEF      		ldi r18,-1
 1166 0656 621A      		sub r6,r18
 1167 0658 720A      		sbc r7,r18
 1168 065a E0E1      		ldi r30,lo8(16)
 1169 065c EE12      		cpse r14,r30
 1170 065e 00C0      		rjmp .L39
 1171               	.LVL65:
 1172 0660 FB89      		ldd r31,Y+19
 1173 0662 F150      		subi r31,lo8(-(-1))
 1174 0664 FB8B      		std Y+19,r31
 1175               	.LVL66:
 1176               	.LBE58:
 1177               	.LBE57:
 439:kuznyechik.c  ****     {
 1178               		.loc 1 439 0
 1179 0666 F111      		cpse r31,__zero_reg__
 1180 0668 00C0      		rjmp .L40
 1181               	.LVL67:
 1182               	.LBE56:
 1183               	.LBE55:
 464:kuznyechik.c  ****   {
 1184               		.loc 1 464 0
 1185 066a F394      		inc r15
 1186               	.LVL68:
 1187 066c 89E0      		ldi r24,lo8(9)
 1188 066e 682E      		mov r6,r24
 1189 0670 F610      		cpse r15,r6
 1190 0672 00C0      		rjmp .L42
 471:kuznyechik.c  **** 
 1191               		.loc 1 471 0
 1192 0674 89E0      		ldi r24,lo8(9)
 1193               	/* epilogue start */
 1194               	.LBE50:
 1195               	.LBE49:
 515:kuznyechik.c  ****   Cipher();
 516:kuznyechik.c  **** }
 1196               		.loc 1 516 0
 1197 0676 AF96      		adiw r28,47
 1198 0678 CDBF      		out __SP_L__,r28
 1199 067a DEBF      		out __SP_H__,r29
 1200 067c DF91      		pop r29
 1201 067e CF91      		pop r28
 1202 0680 1F91      		pop r17
 1203 0682 0F91      		pop r16
 1204               	.LVL69:
 1205 0684 FF90      		pop r15
 1206               	.LVL70:
 1207 0686 EF90      		pop r14
 1208 0688 DF90      		pop r13
 1209 068a CF90      		pop r12
 1210 068c BF90      		pop r11
 1211 068e AF90      		pop r10
 1212 0690 9F90      		pop r9
 1213 0692 8F90      		pop r8
 1214 0694 7F90      		pop r7
 1215 0696 6F90      		pop r6
 1216 0698 5F90      		pop r5
 1217 069a 4F90      		pop r4
 1218 069c 3F90      		pop r3
 1219 069e 2F90      		pop r2
 1220               	.LVL71:
 1221               	.LBB61:
 1222               	.LBB60:
 471:kuznyechik.c  **** 
 1223               		.loc 1 471 0
 1224 06a0 0C94 0000 		jmp AddRoundKey
 1225               	.LVL72:
 1226               	.LBE60:
 1227               	.LBE61:
 1228               		.cfi_endproc
 1229               	.LFE19:
 1231               	.global	kuznyechik_decrypto
 1233               	kuznyechik_decrypto:
 1234               	.LFB20:
 517:kuznyechik.c  **** 
 518:kuznyechik.c  **** void kuznyechik_decrypto(uint8_t* input)
 519:kuznyechik.c  **** {
 1235               		.loc 1 519 0
 1236               		.cfi_startproc
 1237               	.LVL73:
 1238 06a4 2F92      		push r2
 1239               	.LCFI40:
 1240               		.cfi_def_cfa_offset 4
 1241               		.cfi_offset 2, -3
 1242 06a6 3F92      		push r3
 1243               	.LCFI41:
 1244               		.cfi_def_cfa_offset 5
 1245               		.cfi_offset 3, -4
 1246 06a8 4F92      		push r4
 1247               	.LCFI42:
 1248               		.cfi_def_cfa_offset 6
 1249               		.cfi_offset 4, -5
 1250 06aa 5F92      		push r5
 1251               	.LCFI43:
 1252               		.cfi_def_cfa_offset 7
 1253               		.cfi_offset 5, -6
 1254 06ac 6F92      		push r6
 1255               	.LCFI44:
 1256               		.cfi_def_cfa_offset 8
 1257               		.cfi_offset 6, -7
 1258 06ae 7F92      		push r7
 1259               	.LCFI45:
 1260               		.cfi_def_cfa_offset 9
 1261               		.cfi_offset 7, -8
 1262 06b0 8F92      		push r8
 1263               	.LCFI46:
 1264               		.cfi_def_cfa_offset 10
 1265               		.cfi_offset 8, -9
 1266 06b2 9F92      		push r9
 1267               	.LCFI47:
 1268               		.cfi_def_cfa_offset 11
 1269               		.cfi_offset 9, -10
 1270 06b4 AF92      		push r10
 1271               	.LCFI48:
 1272               		.cfi_def_cfa_offset 12
 1273               		.cfi_offset 10, -11
 1274 06b6 BF92      		push r11
 1275               	.LCFI49:
 1276               		.cfi_def_cfa_offset 13
 1277               		.cfi_offset 11, -12
 1278 06b8 CF92      		push r12
 1279               	.LCFI50:
 1280               		.cfi_def_cfa_offset 14
 1281               		.cfi_offset 12, -13
 1282 06ba DF92      		push r13
 1283               	.LCFI51:
 1284               		.cfi_def_cfa_offset 15
 1285               		.cfi_offset 13, -14
 1286 06bc EF92      		push r14
 1287               	.LCFI52:
 1288               		.cfi_def_cfa_offset 16
 1289               		.cfi_offset 14, -15
 1290 06be FF92      		push r15
 1291               	.LCFI53:
 1292               		.cfi_def_cfa_offset 17
 1293               		.cfi_offset 15, -16
 1294 06c0 0F93      		push r16
 1295               	.LCFI54:
 1296               		.cfi_def_cfa_offset 18
 1297               		.cfi_offset 16, -17
 1298 06c2 1F93      		push r17
 1299               	.LCFI55:
 1300               		.cfi_def_cfa_offset 19
 1301               		.cfi_offset 17, -18
 1302 06c4 CF93      		push r28
 1303               	.LCFI56:
 1304               		.cfi_def_cfa_offset 20
 1305               		.cfi_offset 28, -19
 1306 06c6 DF93      		push r29
 1307               	.LCFI57:
 1308               		.cfi_def_cfa_offset 21
 1309               		.cfi_offset 29, -20
 1310 06c8 CDB7      		in r28,__SP_L__
 1311 06ca DEB7      		in r29,__SP_H__
 1312               	.LCFI58:
 1313               		.cfi_def_cfa_register 28
 1314 06cc AF97      		sbiw r28,47
 1315               	.LCFI59:
 1316               		.cfi_def_cfa_offset 68
 1317 06ce CDBF      		out __SP_L__,r28
 1318 06d0 DEBF      		out __SP_H__,r29
 1319               	/* prologue: function */
 1320               	/* frame size = 47 */
 1321               	/* stack size = 65 */
 1322               	.L__stack_usage = 65
 1323 06d2 8C01      		movw r16,r24
 520:kuznyechik.c  ****   state = (state_t*)input;
 1324               		.loc 1 520 0
 1325 06d4 8093 0000 		sts state,r24
 1326 06d8 9093 0000 		sts state+1,r25
 1327               	.LVL74:
 1328               	.LBB73:
 1329               	.LBB74:
 479:kuznyechik.c  ****   {
 1330               		.loc 1 479 0
 1331 06dc 89E0      		ldi r24,lo8(9)
 1332 06de F82E      		mov r15,r24
 1333               	.LVL75:
 1334 06e0 9E01      		movw r18,r28
 1335 06e2 2F5E      		subi r18,-17
 1336 06e4 3F4F      		sbci r19,-1
 1337 06e6 298B      		std Y+17,r18
 1338 06e8 3A8B      		std Y+18,r19
 1339 06ea A801      		movw r20,r16
 1340 06ec 405F      		subi r20,-16
 1341 06ee 5F4F      		sbci r21,-1
 1342 06f0 4EA7      		std Y+46,r20
 1343 06f2 5FA7      		std Y+47,r21
 1344               	.LVL76:
 1345               	.L57:
 481:kuznyechik.c  ****     InvLstep();
 1346               		.loc 1 481 0
 1347 06f4 8F2D      		mov r24,r15
 1348 06f6 0E94 0000 		call AddRoundKey
 1349               	.LVL77:
 1350 06fa 50E1      		ldi r21,lo8(16)
 1351 06fc 5B8B      		std Y+19,r21
 1352               	.LVL78:
 1353               	.L50:
 1354 06fe 1801      		movw r2,r16
 1355 0700 AE01      		movw r20,r28
 1356 0702 4F5F      		subi r20,-1
 1357 0704 5F4F      		sbci r21,-1
 1358 0706 4A01      		movw r8,r20
 479:kuznyechik.c  ****   {
 1359               		.loc 1 479 0
 1360 0708 FA01      		movw r30,r20
 1361 070a D801      		movw r26,r16
 1362               	.LVL79:
 1363               	.L51:
 1364               	.LBB75:
 1365               	.LBB76:
 1366               	.LBB77:
 1367               	.LBB78:
 1368               	.LBB79:
 415:kuznyechik.c  ****     }
 1369               		.loc 1 415 0
 1370 070c 8D91      		ld r24,X+
 1371               	.LVL80:
 1372 070e 8193      		st Z+,r24
 1373               	.LVL81:
 413:kuznyechik.c  ****     {
 1374               		.loc 1 413 0
 1375 0710 4988      		ldd r4,Y+17
 1376 0712 5A88      		ldd r5,Y+18
 1377 0714 E415      		cp r30,r4
 1378 0716 F505      		cpc r31,r5
 1379 0718 01F4      		brne .L51
 1380               	.LBE79:
 421:kuznyechik.c  ****         }
 1381               		.loc 1 421 0
 1382 071a AA80      		ldd r10,Y+2
 1383 071c B12C      		mov r11,__zero_reg__
 1384 071e CB80      		ldd r12,Y+3
 1385 0720 D12C      		mov r13,__zero_reg__
 1386 0722 AC81      		ldd r26,Y+4
 1387               	.LVL82:
 1388 0724 B0E0      		ldi r27,0
 1389 0726 ED81      		ldd r30,Y+5
 1390 0728 F0E0      		ldi r31,0
 1391 072a 6E81      		ldd r22,Y+6
 1392 072c 70E0      		ldi r23,0
 1393 072e 4F81      		ldd r20,Y+7
 1394 0730 242F      		mov r18,r20
 1395 0732 30E0      		ldi r19,0
 1396 0734 2CA7      		std Y+44,r18
 1397 0736 3DA7      		std Y+45,r19
 1398 0738 6884      		ldd r6,Y+8
 1399 073a 712C      		mov r7,__zero_reg__
 1400 073c 8985      		ldd r24,Y+9
 1401 073e 482F      		mov r20,r24
 1402 0740 50E0      		ldi r21,0
 1403 0742 4C8B      		std Y+20,r20
 1404 0744 5D8B      		std Y+21,r21
 1405 0746 8A85      		ldd r24,Y+10
 1406 0748 482E      		mov r4,r24
 1407 074a 512C      		mov r5,__zero_reg__
 1408 074c 4E8A      		std Y+22,r4
 1409 074e 5F8A      		std Y+23,r5
 1410 0750 8B85      		ldd r24,Y+11
 1411 0752 282F      		mov r18,r24
 1412 0754 30E0      		ldi r19,0
 1413 0756 288F      		std Y+24,r18
 1414 0758 398F      		std Y+25,r19
 1415 075a 4C84      		ldd r4,Y+12
 1416 075c 442D      		mov r20,r4
 1417 075e 50E0      		ldi r21,0
 1418 0760 4A8F      		std Y+26,r20
 1419 0762 5B8F      		std Y+27,r21
 1420 0764 8D85      		ldd r24,Y+13
 1421 0766 482E      		mov r4,r24
 1422 0768 512C      		mov r5,__zero_reg__
 1423 076a 4C8E      		std Y+28,r4
 1424 076c 5D8E      		std Y+29,r5
 1425 076e 8E85      		ldd r24,Y+14
 1426 0770 90E0      		ldi r25,0
 1427 0772 2F85      		ldd r18,Y+15
 1428 0774 30E0      		ldi r19,0
 1429 0776 E888      		ldd r14,Y+16
 1430 0778 4E2D      		mov r20,r14
 1431 077a 50E0      		ldi r21,0
 1432 077c 4E8F      		std Y+30,r20
 1433 077e 5F8F      		std Y+31,r21
 1434 0780 E980      		ldd r14,Y+1
 1435 0782 4E2C      		mov r4,r14
 1436 0784 512C      		mov r5,__zero_reg__
 1437 0786 48A2      		std Y+32,r4
 1438 0788 59A2      		std Y+33,r5
 1439 078a 2801      		movw r4,r16
 1440 078c E12C      		mov r14,__zero_reg__
 1441 078e A501      		movw r20,r10
 1442 0790 4050      		subi r20,lo8(-(mult_mod_poly+1024))
 1443 0792 5040      		sbci r21,hi8(-(mult_mod_poly+1024))
 1444 0794 4AA3      		std Y+34,r20
 1445 0796 5BA3      		std Y+35,r21
 1446 0798 A601      		movw r20,r12
 1447 079a 4050      		subi r20,lo8(-(mult_mod_poly+512))
 1448 079c 5040      		sbci r21,hi8(-(mult_mod_poly+512))
 1449 079e 4CA3      		std Y+36,r20
 1450 07a0 5DA3      		std Y+37,r21
 1451 07a2 AD01      		movw r20,r26
 1452 07a4 4050      		subi r20,lo8(-(mult_mod_poly+768))
 1453 07a6 5040      		sbci r21,hi8(-(mult_mod_poly+768))
 1454 07a8 4EA3      		std Y+38,r20
 1455 07aa 5FA3      		std Y+39,r21
 1456 07ac DF01      		movw r26,r30
 1457 07ae A050      		subi r26,lo8(-(mult_mod_poly+256))
 1458 07b0 B040      		sbci r27,hi8(-(mult_mod_poly+256))
 1459 07b2 A8A7      		std Y+40,r26
 1460 07b4 B9A7      		std Y+41,r27
 1461 07b6 FB01      		movw r30,r22
 1462 07b8 E050      		subi r30,lo8(-(mult_mod_poly+1536))
 1463 07ba F040      		sbci r31,hi8(-(mult_mod_poly+1536))
 1464 07bc EAA7      		std Y+42,r30
 1465 07be FBA7      		std Y+43,r31
 1466 07c0 4CA5      		ldd r20,Y+44
 1467 07c2 5DA5      		ldd r21,Y+45
 1468 07c4 4050      		subi r20,lo8(-(mult_mod_poly+1280))
 1469 07c6 5040      		sbci r21,hi8(-(mult_mod_poly+1280))
 1470 07c8 4CA7      		std Y+44,r20
 1471 07ca 5DA7      		std Y+45,r21
 1472 07cc D301      		movw r26,r6
 1473 07ce A050      		subi r26,lo8(-(mult_mod_poly))
 1474 07d0 B040      		sbci r27,hi8(-(mult_mod_poly))
 1475 07d2 3D01      		movw r6,r26
 1476 07d4 EC89      		ldd r30,Y+20
 1477 07d6 FD89      		ldd r31,Y+21
 1478 07d8 E050      		subi r30,lo8(-(mult_mod_poly+1792))
 1479 07da F040      		sbci r31,hi8(-(mult_mod_poly+1792))
 1480 07dc 6F01      		movw r12,r30
 1481 07de 688D      		ldd r22,Y+24
 1482 07e0 798D      		ldd r23,Y+25
 1483 07e2 6050      		subi r22,lo8(-(mult_mod_poly+1280))
 1484 07e4 7040      		sbci r23,hi8(-(mult_mod_poly+1280))
 1485 07e6 4A8D      		ldd r20,Y+26
 1486 07e8 5B8D      		ldd r21,Y+27
 1487 07ea 4050      		subi r20,lo8(-(mult_mod_poly+1536))
 1488 07ec 5040      		sbci r21,hi8(-(mult_mod_poly+1536))
 1489 07ee AC8D      		ldd r26,Y+28
 1490 07f0 BD8D      		ldd r27,Y+29
 1491 07f2 A050      		subi r26,lo8(-(mult_mod_poly+256))
 1492 07f4 B040      		sbci r27,hi8(-(mult_mod_poly+256))
 1493 07f6 8050      		subi r24,lo8(-(mult_mod_poly+768))
 1494 07f8 9040      		sbci r25,hi8(-(mult_mod_poly+768))
 1495 07fa 2050      		subi r18,lo8(-(mult_mod_poly+512))
 1496 07fc 3040      		sbci r19,hi8(-(mult_mod_poly+512))
 1497               	.L54:
 1498               	.LVL83:
 419:kuznyechik.c  ****         {
 1499               		.loc 1 419 0
 1500 07fe FFE0      		ldi r31,lo8(15)
 1501 0800 EF12      		cpse r14,r31
 1502 0802 00C0      		rjmp .L52
 421:kuznyechik.c  ****         }
 1503               		.loc 1 421 0
 1504 0804 EAA1      		ldd r30,Y+34
 1505 0806 FBA1      		ldd r31,Y+35
 1506 0808 B080      		ld r11,Z
 1507 080a ECA1      		ldd r30,Y+36
 1508 080c FDA1      		ldd r31,Y+37
 1509 080e A080      		ld r10,Z
 1510 0810 AB24      		eor r10,r11
 1511 0812 EEA1      		ldd r30,Y+38
 1512 0814 FFA1      		ldd r31,Y+39
 1513 0816 B080      		ld r11,Z
 1514 0818 BA24      		eor r11,r10
 1515 081a E8A5      		ldd r30,Y+40
 1516 081c F9A5      		ldd r31,Y+41
 1517 081e A080      		ld r10,Z
 1518 0820 BA24      		eor r11,r10
 1519 0822 EAA5      		ldd r30,Y+42
 1520 0824 FBA5      		ldd r31,Y+43
 1521 0826 A080      		ld r10,Z
 1522 0828 BA24      		eor r11,r10
 1523 082a ECA5      		ldd r30,Y+44
 1524 082c FDA5      		ldd r31,Y+45
 1525 082e A080      		ld r10,Z
 1526 0830 BA24      		eor r11,r10
 1527 0832 F301      		movw r30,r6
 1528 0834 A080      		ld r10,Z
 1529 0836 BA24      		eor r11,r10
 1530 0838 F601      		movw r30,r12
 1531 083a A080      		ld r10,Z
 1532 083c BA24      		eor r11,r10
 1533 083e EE89      		ldd r30,Y+22
 1534 0840 FF89      		ldd r31,Y+23
 1535 0842 E050      		subi r30,lo8(-(mult_mod_poly))
 1536 0844 F040      		sbci r31,hi8(-(mult_mod_poly))
 1537 0846 E081      		ld r30,Z
 1538 0848 BE26      		eor r11,r30
 1539 084a FB01      		movw r30,r22
 1540 084c A080      		ld r10,Z
 1541 084e BA24      		eor r11,r10
 1542 0850 FA01      		movw r30,r20
 1543 0852 A080      		ld r10,Z
 1544 0854 BA24      		eor r11,r10
 1545 0856 EC91      		ld r30,X
 1546 0858 BE26      		eor r11,r30
 1547 085a FC01      		movw r30,r24
 1548 085c A080      		ld r10,Z
 1549 085e BA24      		eor r11,r10
 1550 0860 F901      		movw r30,r18
 1551 0862 A080      		ld r10,Z
 1552 0864 BA24      		eor r11,r10
 1553 0866 EE8D      		ldd r30,Y+30
 1554 0868 FF8D      		ldd r31,Y+31
 1555 086a E050      		subi r30,lo8(-(mult_mod_poly+1024))
 1556 086c F040      		sbci r31,hi8(-(mult_mod_poly+1024))
 1557 086e E081      		ld r30,Z
 1558 0870 BE26      		eor r11,r30
 1559 0872 E8A1      		ldd r30,Y+32
 1560 0874 F9A1      		ldd r31,Y+33
 1561 0876 E050      		subi r30,lo8(-(mult_mod_poly))
 1562 0878 F040      		sbci r31,hi8(-(mult_mod_poly))
 1563 087a E081      		ld r30,Z
 1564 087c BE26      		eor r11,r30
 1565 087e F801      		movw r30,r16
 1566 0880 B786      		std Z+15,r11
 1567 0882 00C0      		rjmp .L53
 1568               	.L52:
 425:kuznyechik.c  ****         }
 1569               		.loc 1 425 0
 1570 0884 F401      		movw r30,r8
 1571 0886 B180      		ldd r11,Z+1
 1572 0888 F201      		movw r30,r4
 1573 088a B082      		st Z,r11
 1574               	.L53:
 417:kuznyechik.c  ****     {
 1575               		.loc 1 417 0
 1576 088c E394      		inc r14
 1577               	.LVL84:
 1578 088e FFEF      		ldi r31,-1
 1579 0890 8F1A      		sub r8,r31
 1580 0892 9F0A      		sbc r9,r31
 1581 0894 EFEF      		ldi r30,-1
 1582 0896 4E1A      		sub r4,r30
 1583 0898 5E0A      		sbc r5,r30
 1584 089a F0E1      		ldi r31,lo8(16)
 1585 089c EF12      		cpse r14,r31
 1586 089e 00C0      		rjmp .L54
 1587               	.LVL85:
 1588 08a0 2B89      		ldd r18,Y+19
 1589 08a2 2150      		subi r18,lo8(-(-1))
 1590 08a4 2B8B      		std Y+19,r18
 1591               	.LVL86:
 1592               	.LBE78:
 1593               	.LBE77:
 448:kuznyechik.c  ****     {
 1594               		.loc 1 448 0
 1595 08a6 2111      		cpse r18,__zero_reg__
 1596 08a8 00C0      		rjmp .L50
 1597               	.LVL87:
 1598               	.L56:
 1599               	.LBE76:
 1600               	.LBE75:
 1601               	.LBB80:
 1602               	.LBB81:
 1603               	.LBB82:
 1604               	.LBB83:
 122:kuznyechik.c  **** }
 1605               		.loc 1 122 0
 1606 08aa D101      		movw r26,r2
 1607 08ac EC91      		ld r30,X
 1608 08ae F0E0      		ldi r31,0
 1609 08b0 E050      		subi r30,lo8(-(rsbox))
 1610 08b2 F040      		sbci r31,hi8(-(rsbox))
 1611 08b4 8081      		ld r24,Z
 1612               	.LVL88:
 1613               	.LBE83:
 1614               	.LBE82:
 380:kuznyechik.c  ****   }
 1615               		.loc 1 380 0
 1616 08b6 F101      		movw r30,r2
 1617 08b8 8193      		st Z+,r24
 1618 08ba 1F01      		movw r2,r30
 1619               	.LVL89:
 378:kuznyechik.c  ****   {
 1620               		.loc 1 378 0
 1621 08bc 4EA4      		ldd r4,Y+46
 1622 08be 5FA4      		ldd r5,Y+47
 1623 08c0 4E16      		cp r4,r30
 1624 08c2 5F06      		cpc r5,r31
 1625 08c4 01F4      		brne .L56
 1626               	.LVL90:
 1627               	.LBE81:
 1628               	.LBE80:
 479:kuznyechik.c  ****   {
 1629               		.loc 1 479 0
 1630 08c6 FA94      		dec r15
 1631               	.LVL91:
 1632 08c8 F110      		cpse r15,__zero_reg__
 1633 08ca 00C0      		rjmp .L57
 485:kuznyechik.c  **** 
 1634               		.loc 1 485 0
 1635 08cc 80E0      		ldi r24,0
 1636               	/* epilogue start */
 1637               	.LBE74:
 1638               	.LBE73:
 521:kuznyechik.c  ****   InvCipher();
 522:kuznyechik.c  **** }
 1639               		.loc 1 522 0
 1640 08ce AF96      		adiw r28,47
 1641 08d0 CDBF      		out __SP_L__,r28
 1642 08d2 DEBF      		out __SP_H__,r29
 1643 08d4 DF91      		pop r29
 1644 08d6 CF91      		pop r28
 1645 08d8 1F91      		pop r17
 1646 08da 0F91      		pop r16
 1647               	.LVL92:
 1648 08dc FF90      		pop r15
 1649               	.LVL93:
 1650 08de EF90      		pop r14
 1651 08e0 DF90      		pop r13
 1652 08e2 CF90      		pop r12
 1653 08e4 BF90      		pop r11
 1654 08e6 AF90      		pop r10
 1655 08e8 9F90      		pop r9
 1656 08ea 8F90      		pop r8
 1657 08ec 7F90      		pop r7
 1658 08ee 6F90      		pop r6
 1659 08f0 5F90      		pop r5
 1660 08f2 4F90      		pop r4
 1661 08f4 3F90      		pop r3
 1662 08f6 2F90      		pop r2
 1663               	.LBB85:
 1664               	.LBB84:
 485:kuznyechik.c  **** 
 1665               		.loc 1 485 0
 1666 08f8 0C94 0000 		jmp AddRoundKey
 1667               	.LVL94:
 1668               	.LBE84:
 1669               	.LBE85:
 1670               		.cfi_endproc
 1671               	.LFE20:
 1673               		.section	.rodata
 1676               	C:
 1677 0000 6E        		.byte	110
 1678 0001 A2        		.byte	-94
 1679 0002 76        		.byte	118
 1680 0003 72        		.byte	114
 1681 0004 6C        		.byte	108
 1682 0005 48        		.byte	72
 1683 0006 7A        		.byte	122
 1684 0007 B8        		.byte	-72
 1685 0008 5D        		.byte	93
 1686 0009 27        		.byte	39
 1687 000a BD        		.byte	-67
 1688 000b 10        		.byte	16
 1689 000c DD        		.byte	-35
 1690 000d 84        		.byte	-124
 1691 000e 94        		.byte	-108
 1692 000f 01        		.byte	1
 1693 0010 DC        		.byte	-36
 1694 0011 87        		.byte	-121
 1695 0012 EC        		.byte	-20
 1696 0013 E4        		.byte	-28
 1697 0014 D8        		.byte	-40
 1698 0015 90        		.byte	-112
 1699 0016 F4        		.byte	-12
 1700 0017 B3        		.byte	-77
 1701 0018 BA        		.byte	-70
 1702 0019 4E        		.byte	78
 1703 001a B9        		.byte	-71
 1704 001b 20        		.byte	32
 1705 001c 79        		.byte	121
 1706 001d CB        		.byte	-53
 1707 001e EB        		.byte	-21
 1708 001f 02        		.byte	2
 1709 0020 B2        		.byte	-78
 1710 0021 25        		.byte	37
 1711 0022 9A        		.byte	-102
 1712 0023 96        		.byte	-106
 1713 0024 B4        		.byte	-76
 1714 0025 D8        		.byte	-40
 1715 0026 8E        		.byte	-114
 1716 0027 0B        		.byte	11
 1717 0028 E7        		.byte	-25
 1718 0029 69        		.byte	105
 1719 002a 04        		.byte	4
 1720 002b 30        		.byte	48
 1721 002c A4        		.byte	-92
 1722 002d 4F        		.byte	79
 1723 002e 7F        		.byte	127
 1724 002f 03        		.byte	3
 1725 0030 7B        		.byte	123
 1726 0031 CD        		.byte	-51
 1727 0032 1B        		.byte	27
 1728 0033 0B        		.byte	11
 1729 0034 73        		.byte	115
 1730 0035 E3        		.byte	-29
 1731 0036 2B        		.byte	43
 1732 0037 A5        		.byte	-91
 1733 0038 B7        		.byte	-73
 1734 0039 9C        		.byte	-100
 1735 003a B1        		.byte	-79
 1736 003b 40        		.byte	64
 1737 003c F2        		.byte	-14
 1738 003d 55        		.byte	85
 1739 003e 15        		.byte	21
 1740 003f 04        		.byte	4
 1741 0040 15        		.byte	21
 1742 0041 6F        		.byte	111
 1743 0042 6D        		.byte	109
 1744 0043 79        		.byte	121
 1745 0044 1F        		.byte	31
 1746 0045 AB        		.byte	-85
 1747 0046 51        		.byte	81
 1748 0047 1D        		.byte	29
 1749 0048 EA        		.byte	-22
 1750 0049 BB        		.byte	-69
 1751 004a 0C        		.byte	12
 1752 004b 50        		.byte	80
 1753 004c 2F        		.byte	47
 1754 004d D1        		.byte	-47
 1755 004e 81        		.byte	-127
 1756 004f 05        		.byte	5
 1757 0050 A7        		.byte	-89
 1758 0051 4A        		.byte	74
 1759 0052 F7        		.byte	-9
 1760 0053 EF        		.byte	-17
 1761 0054 AB        		.byte	-85
 1762 0055 73        		.byte	115
 1763 0056 DF        		.byte	-33
 1764 0057 16        		.byte	22
 1765 0058 0D        		.byte	13
 1766 0059 D2        		.byte	-46
 1767 005a 08        		.byte	8
 1768 005b 60        		.byte	96
 1769 005c 8B        		.byte	-117
 1770 005d 9E        		.byte	-98
 1771 005e FE        		.byte	-2
 1772 005f 06        		.byte	6
 1773 0060 C9        		.byte	-55
 1774 0061 E8        		.byte	-24
 1775 0062 81        		.byte	-127
 1776 0063 9D        		.byte	-99
 1777 0064 C7        		.byte	-57
 1778 0065 3B        		.byte	59
 1779 0066 A5        		.byte	-91
 1780 0067 AE        		.byte	-82
 1781 0068 50        		.byte	80
 1782 0069 F5        		.byte	-11
 1783 006a B5        		.byte	-75
 1784 006b 70        		.byte	112
 1785 006c 56        		.byte	86
 1786 006d 1A        		.byte	26
 1787 006e 6A        		.byte	106
 1788 006f 07        		.byte	7
 1789 0070 F6        		.byte	-10
 1790 0071 59        		.byte	89
 1791 0072 36        		.byte	54
 1792 0073 16        		.byte	22
 1793 0074 E6        		.byte	-26
 1794 0075 05        		.byte	5
 1795 0076 56        		.byte	86
 1796 0077 89        		.byte	-119
 1797 0078 AD        		.byte	-83
 1798 0079 FB        		.byte	-5
 1799 007a A1        		.byte	-95
 1800 007b 80        		.byte	-128
 1801 007c 27        		.byte	39
 1802 007d AA        		.byte	-86
 1803 007e 2A        		.byte	42
 1804 007f 08        		.byte	8
 1805 0080 98        		.byte	-104
 1806 0081 FB        		.byte	-5
 1807 0082 40        		.byte	64
 1808 0083 64        		.byte	100
 1809 0084 8A        		.byte	-118
 1810 0085 4D        		.byte	77
 1811 0086 2C        		.byte	44
 1812 0087 31        		.byte	49
 1813 0088 F0        		.byte	-16
 1814 0089 DC        		.byte	-36
 1815 008a 1C        		.byte	28
 1816 008b 90        		.byte	-112
 1817 008c FA        		.byte	-6
 1818 008d 2E        		.byte	46
 1819 008e BE        		.byte	-66
 1820 008f 09        		.byte	9
 1821 0090 2A        		.byte	42
 1822 0091 DE        		.byte	-34
 1823 0092 DA        		.byte	-38
 1824 0093 F2        		.byte	-14
 1825 0094 3E        		.byte	62
 1826 0095 95        		.byte	-107
 1827 0096 A2        		.byte	-94
 1828 0097 3A        		.byte	58
 1829 0098 17        		.byte	23
 1830 0099 B5        		.byte	-75
 1831 009a 18        		.byte	24
 1832 009b A0        		.byte	-96
 1833 009c 5E        		.byte	94
 1834 009d 61        		.byte	97
 1835 009e C1        		.byte	-63
 1836 009f 0A        		.byte	10
 1837 00a0 44        		.byte	68
 1838 00a1 7C        		.byte	124
 1839 00a2 AC        		.byte	-84
 1840 00a3 80        		.byte	-128
 1841 00a4 52        		.byte	82
 1842 00a5 DD        		.byte	-35
 1843 00a6 D8        		.byte	-40
 1844 00a7 82        		.byte	-126
 1845 00a8 4A        		.byte	74
 1846 00a9 92        		.byte	-110
 1847 00aa A5        		.byte	-91
 1848 00ab B0        		.byte	-80
 1849 00ac 83        		.byte	-125
 1850 00ad E5        		.byte	-27
 1851 00ae 55        		.byte	85
 1852 00af 0B        		.byte	11
 1853 00b0 8D        		.byte	-115
 1854 00b1 94        		.byte	-108
 1855 00b2 2D        		.byte	45
 1856 00b3 1D        		.byte	29
 1857 00b4 95        		.byte	-107
 1858 00b5 E6        		.byte	-26
 1859 00b6 7D        		.byte	125
 1860 00b7 2C        		.byte	44
 1861 00b8 1A        		.byte	26
 1862 00b9 67        		.byte	103
 1863 00ba 10        		.byte	16
 1864 00bb C0        		.byte	-64
 1865 00bc D5        		.byte	-43
 1866 00bd FF        		.byte	-1
 1867 00be 3F        		.byte	63
 1868 00bf 0C        		.byte	12
 1869 00c0 E3        		.byte	-29
 1870 00c1 36        		.byte	54
 1871 00c2 5B        		.byte	91
 1872 00c3 6F        		.byte	111
 1873 00c4 F9        		.byte	-7
 1874 00c5 AE        		.byte	-82
 1875 00c6 07        		.byte	7
 1876 00c7 94        		.byte	-108
 1877 00c8 47        		.byte	71
 1878 00c9 40        		.byte	64
 1879 00ca AD        		.byte	-83
 1880 00cb D0        		.byte	-48
 1881 00cc 08        		.byte	8
 1882 00cd 7B        		.byte	123
 1883 00ce AB        		.byte	-85
 1884 00cf 0D        		.byte	13
 1885 00d0 51        		.byte	81
 1886 00d1 13        		.byte	19
 1887 00d2 C1        		.byte	-63
 1888 00d3 F9        		.byte	-7
 1889 00d4 4D        		.byte	77
 1890 00d5 76        		.byte	118
 1891 00d6 89        		.byte	-119
 1892 00d7 9F        		.byte	-97
 1893 00d8 A0        		.byte	-96
 1894 00d9 29        		.byte	41
 1895 00da A9        		.byte	-87
 1896 00db E0        		.byte	-32
 1897 00dc AC        		.byte	-84
 1898 00dd 34        		.byte	52
 1899 00de D4        		.byte	-44
 1900 00df 0E        		.byte	14
 1901 00e0 3F        		.byte	63
 1902 00e1 B1        		.byte	-79
 1903 00e2 B7        		.byte	-73
 1904 00e3 8B        		.byte	-117
 1905 00e4 21        		.byte	33
 1906 00e5 3E        		.byte	62
 1907 00e6 F3        		.byte	-13
 1908 00e7 27        		.byte	39
 1909 00e8 FD        		.byte	-3
 1910 00e9 0E        		.byte	14
 1911 00ea 14        		.byte	20
 1912 00eb F0        		.byte	-16
 1913 00ec 71        		.byte	113
 1914 00ed B0        		.byte	-80
 1915 00ee 40        		.byte	64
 1916 00ef 0F        		.byte	15
 1917 00f0 2F        		.byte	47
 1918 00f1 B2        		.byte	-78
 1919 00f2 6C        		.byte	108
 1920 00f3 2C        		.byte	44
 1921 00f4 0F        		.byte	15
 1922 00f5 0A        		.byte	10
 1923 00f6 AC        		.byte	-84
 1924 00f7 D1        		.byte	-47
 1925 00f8 99        		.byte	-103
 1926 00f9 35        		.byte	53
 1927 00fa 81        		.byte	-127
 1928 00fb C3        		.byte	-61
 1929 00fc 4E        		.byte	78
 1930 00fd 97        		.byte	-105
 1931 00fe 54        		.byte	84
 1932 00ff 10        		.byte	16
 1933 0100 41        		.byte	65
 1934 0101 10        		.byte	16
 1935 0102 1A        		.byte	26
 1936 0103 5E        		.byte	94
 1937 0104 63        		.byte	99
 1938 0105 42        		.byte	66
 1939 0106 D6        		.byte	-42
 1940 0107 69        		.byte	105
 1941 0108 C4        		.byte	-60
 1942 0109 12        		.byte	18
 1943 010a 3C        		.byte	60
 1944 010b D3        		.byte	-45
 1945 010c 93        		.byte	-109
 1946 010d 13        		.byte	19
 1947 010e C0        		.byte	-64
 1948 010f 11        		.byte	17
 1949 0110 F3        		.byte	-13
 1950 0111 35        		.byte	53
 1951 0112 80        		.byte	-128
 1952 0113 C8        		.byte	-56
 1953 0114 D7        		.byte	-41
 1954 0115 9A        		.byte	-102
 1955 0116 58        		.byte	88
 1956 0117 62        		.byte	98
 1957 0118 23        		.byte	35
 1958 0119 7B        		.byte	123
 1959 011a 38        		.byte	56
 1960 011b E3        		.byte	-29
 1961 011c 37        		.byte	55
 1962 011d 5C        		.byte	92
 1963 011e BF        		.byte	-65
 1964 011f 12        		.byte	18
 1965 0120 9D        		.byte	-99
 1966 0121 97        		.byte	-105
 1967 0122 F6        		.byte	-10
 1968 0123 BA        		.byte	-70
 1969 0124 BB        		.byte	-69
 1970 0125 D2        		.byte	-46
 1971 0126 22        		.byte	34
 1972 0127 DA        		.byte	-38
 1973 0128 7E        		.byte	126
 1974 0129 5C        		.byte	92
 1975 012a 85        		.byte	-123
 1976 012b F3        		.byte	-13
 1977 012c EA        		.byte	-22
 1978 012d D8        		.byte	-40
 1979 012e 2B        		.byte	43
 1980 012f 13        		.byte	19
 1981 0130 54        		.byte	84
 1982 0131 7F        		.byte	127
 1983 0132 77        		.byte	119
 1984 0133 27        		.byte	39
 1985 0134 7C        		.byte	124
 1986 0135 E9        		.byte	-23
 1987 0136 87        		.byte	-121
 1988 0137 74        		.byte	116
 1989 0138 2E        		.byte	46
 1990 0139 A9        		.byte	-87
 1991 013a 30        		.byte	48
 1992 013b 83        		.byte	-125
 1993 013c BC        		.byte	-68
 1994 013d C2        		.byte	-62
 1995 013e 41        		.byte	65
 1996 013f 14        		.byte	20
 1997 0140 3A        		.byte	58
 1998 0141 DD        		.byte	-35
 1999 0142 01        		.byte	1
 2000 0143 55        		.byte	85
 2001 0144 10        		.byte	16
 2002 0145 A1        		.byte	-95
 2003 0146 FD        		.byte	-3
 2004 0147 CC        		.byte	-52
 2005 0148 73        		.byte	115
 2006 0149 8E        		.byte	-114
 2007 014a 8D        		.byte	-115
 2008 014b 93        		.byte	-109
 2009 014c 61        		.byte	97
 2010 014d 46        		.byte	70
 2011 014e D5        		.byte	-43
 2012 014f 15        		.byte	21
 2013 0150 88        		.byte	-120
 2014 0151 F8        		.byte	-8
 2015 0152 9B        		.byte	-101
 2016 0153 C3        		.byte	-61
 2017 0154 A4        		.byte	-92
 2018 0155 79        		.byte	121
 2019 0156 73        		.byte	115
 2020 0157 C7        		.byte	-57
 2021 0158 94        		.byte	-108
 2022 0159 E7        		.byte	-25
 2023 015a 89        		.byte	-119
 2024 015b A3        		.byte	-93
 2025 015c C5        		.byte	-59
 2026 015d 09        		.byte	9
 2027 015e AA        		.byte	-86
 2028 015f 16        		.byte	22
 2029 0160 E6        		.byte	-26
 2030 0161 5A        		.byte	90
 2031 0162 ED        		.byte	-19
 2032 0163 B1        		.byte	-79
 2033 0164 C8        		.byte	-56
 2034 0165 31        		.byte	49
 2035 0166 09        		.byte	9
 2036 0167 7F        		.byte	127
 2037 0168 C9        		.byte	-55
 2038 0169 C0        		.byte	-64
 2039 016a 34        		.byte	52
 2040 016b B3        		.byte	-77
 2041 016c 18        		.byte	24
 2042 016d 8D        		.byte	-115
 2043 016e 3E        		.byte	62
 2044 016f 17        		.byte	23
 2045 0170 D9        		.byte	-39
 2046 0171 EB        		.byte	-21
 2047 0172 5A        		.byte	90
 2048 0173 3A        		.byte	58
 2049 0174 E9        		.byte	-23
 2050 0175 0F        		.byte	15
 2051 0176 FA        		.byte	-6
 2052 0177 58        		.byte	88
 2053 0178 34        		.byte	52
 2054 0179 CE        		.byte	-50
 2055 017a 20        		.byte	32
 2056 017b 43        		.byte	67
 2057 017c 69        		.byte	105
 2058 017d 3D        		.byte	61
 2059 017e 7E        		.byte	126
 2060 017f 18        		.byte	24
 2061 0180 B7        		.byte	-73
 2062 0181 49        		.byte	73
 2063 0182 2C        		.byte	44
 2064 0183 48        		.byte	72
 2065 0184 85        		.byte	-123
 2066 0185 47        		.byte	71
 2067 0186 80        		.byte	-128
 2068 0187 E0        		.byte	-32
 2069 0188 69        		.byte	105
 2070 0189 E9        		.byte	-23
 2071 018a 9D        		.byte	-99
 2072 018b 53        		.byte	83
 2073 018c B4        		.byte	-76
 2074 018d B9        		.byte	-71
 2075 018e EA        		.byte	-22
 2076 018f 19        		.byte	25
 2077 0190 05        		.byte	5
 2078 0191 6C        		.byte	108
 2079 0192 B6        		.byte	-74
 2080 0193 DE        		.byte	-34
 2081 0194 31        		.byte	49
 2082 0195 9F        		.byte	-97
 2083 0196 0E        		.byte	14
 2084 0197 EB        		.byte	-21
 2085 0198 8E        		.byte	-114
 2086 0199 80        		.byte	-128
 2087 019a 99        		.byte	-103
 2088 019b 63        		.byte	99
 2089 019c 10        		.byte	16
 2090 019d F6        		.byte	-10
 2091 019e 95        		.byte	-107
 2092 019f 1A        		.byte	26
 2093 01a0 6B        		.byte	107
 2094 01a1 CE        		.byte	-50
 2095 01a2 C0        		.byte	-64
 2096 01a3 AC        		.byte	-84
 2097 01a4 5D        		.byte	93
 2098 01a5 D7        		.byte	-41
 2099 01a6 74        		.byte	116
 2100 01a7 53        		.byte	83
 2101 01a8 D3        		.byte	-45
 2102 01a9 A7        		.byte	-89
 2103 01aa 24        		.byte	36
 2104 01ab 73        		.byte	115
 2105 01ac CD        		.byte	-51
 2106 01ad 72        		.byte	114
 2107 01ae 01        		.byte	1
 2108 01af 1B        		.byte	27
 2109 01b0 A2        		.byte	-94
 2110 01b1 26        		.byte	38
 2111 01b2 41        		.byte	65
 2112 01b3 31        		.byte	49
 2113 01b4 9A        		.byte	-102
 2114 01b5 EC        		.byte	-20
 2115 01b6 D1        		.byte	-47
 2116 01b7 FD        		.byte	-3
 2117 01b8 83        		.byte	-125
 2118 01b9 52        		.byte	82
 2119 01ba 91        		.byte	-111
 2120 01bb 03        		.byte	3
 2121 01bc 9B        		.byte	-101
 2122 01bd 68        		.byte	104
 2123 01be 6B        		.byte	107
 2124 01bf 1C        		.byte	28
 2125 01c0 CC        		.byte	-52
 2126 01c1 84        		.byte	-124
 2127 01c2 37        		.byte	55
 2128 01c3 43        		.byte	67
 2129 01c4 F6        		.byte	-10
 2130 01c5 A4        		.byte	-92
 2131 01c6 AB        		.byte	-85
 2132 01c7 45        		.byte	69
 2133 01c8 DE        		.byte	-34
 2134 01c9 75        		.byte	117
 2135 01ca 2C        		.byte	44
 2136 01cb 13        		.byte	19
 2137 01cc 46        		.byte	70
 2138 01cd EC        		.byte	-20
 2139 01ce FF        		.byte	-1
 2140 01cf 1D        		.byte	29
 2141 01d0 7E        		.byte	126
 2142 01d1 A1        		.byte	-95
 2143 01d2 AD        		.byte	-83
 2144 01d3 D5        		.byte	-43
 2145 01d4 42        		.byte	66
 2146 01d5 7C        		.byte	124
 2147 01d6 25        		.byte	37
 2148 01d7 4E        		.byte	78
 2149 01d8 39        		.byte	57
 2150 01d9 1C        		.byte	28
 2151 01da 28        		.byte	40
 2152 01db 23        		.byte	35
 2153 01dc E2        		.byte	-30
 2154 01dd A3        		.byte	-93
 2155 01de 80        		.byte	-128
 2156 01df 1E        		.byte	30
 2157 01e0 10        		.byte	16
 2158 01e1 03        		.byte	3
 2159 01e2 DB        		.byte	-37
 2160 01e3 A7        		.byte	-89
 2161 01e4 2E        		.byte	46
 2162 01e5 34        		.byte	52
 2163 01e6 5F        		.byte	95
 2164 01e7 F6        		.byte	-10
 2165 01e8 64        		.byte	100
 2166 01e9 3B        		.byte	59
 2167 01ea 95        		.byte	-107
 2168 01eb 33        		.byte	51
 2169 01ec 3F        		.byte	63
 2170 01ed 27        		.byte	39
 2171 01ee 14        		.byte	20
 2172 01ef 1F        		.byte	31
 2173 01f0 5E        		.byte	94
 2174 01f1 A7        		.byte	-89
 2175 01f2 D8        		.byte	-40
 2176 01f3 58        		.byte	88
 2177 01f4 1E        		.byte	30
 2178 01f5 14        		.byte	20
 2179 01f6 9B        		.byte	-101
 2180 01f7 61        		.byte	97
 2181 01f8 F1        		.byte	-15
 2182 01f9 6A        		.byte	106
 2183 01fa C1        		.byte	-63
 2184 01fb 45        		.byte	69
 2185 01fc 9C        		.byte	-100
 2186 01fd ED        		.byte	-19
 2187 01fe A8        		.byte	-88
 2188 01ff 20        		.byte	32
 2191               	mult_mod_poly:
 2192 0200 00        		.byte	0
 2193 0201 01        		.byte	1
 2194 0202 02        		.byte	2
 2195 0203 03        		.byte	3
 2196 0204 04        		.byte	4
 2197 0205 05        		.byte	5
 2198 0206 06        		.byte	6
 2199 0207 07        		.byte	7
 2200 0208 08        		.byte	8
 2201 0209 09        		.byte	9
 2202 020a 0A        		.byte	10
 2203 020b 0B        		.byte	11
 2204 020c 0C        		.byte	12
 2205 020d 0D        		.byte	13
 2206 020e 0E        		.byte	14
 2207 020f 0F        		.byte	15
 2208 0210 10        		.byte	16
 2209 0211 11        		.byte	17
 2210 0212 12        		.byte	18
 2211 0213 13        		.byte	19
 2212 0214 14        		.byte	20
 2213 0215 15        		.byte	21
 2214 0216 16        		.byte	22
 2215 0217 17        		.byte	23
 2216 0218 18        		.byte	24
 2217 0219 19        		.byte	25
 2218 021a 1A        		.byte	26
 2219 021b 1B        		.byte	27
 2220 021c 1C        		.byte	28
 2221 021d 1D        		.byte	29
 2222 021e 1E        		.byte	30
 2223 021f 1F        		.byte	31
 2224 0220 20        		.byte	32
 2225 0221 21        		.byte	33
 2226 0222 22        		.byte	34
 2227 0223 23        		.byte	35
 2228 0224 24        		.byte	36
 2229 0225 25        		.byte	37
 2230 0226 26        		.byte	38
 2231 0227 27        		.byte	39
 2232 0228 28        		.byte	40
 2233 0229 29        		.byte	41
 2234 022a 2A        		.byte	42
 2235 022b 2B        		.byte	43
 2236 022c 2C        		.byte	44
 2237 022d 2D        		.byte	45
 2238 022e 2E        		.byte	46
 2239 022f 2F        		.byte	47
 2240 0230 30        		.byte	48
 2241 0231 31        		.byte	49
 2242 0232 32        		.byte	50
 2243 0233 33        		.byte	51
 2244 0234 34        		.byte	52
 2245 0235 35        		.byte	53
 2246 0236 36        		.byte	54
 2247 0237 37        		.byte	55
 2248 0238 38        		.byte	56
 2249 0239 39        		.byte	57
 2250 023a 3A        		.byte	58
 2251 023b 3B        		.byte	59
 2252 023c 3C        		.byte	60
 2253 023d 3D        		.byte	61
 2254 023e 3E        		.byte	62
 2255 023f 3F        		.byte	63
 2256 0240 40        		.byte	64
 2257 0241 41        		.byte	65
 2258 0242 42        		.byte	66
 2259 0243 43        		.byte	67
 2260 0244 44        		.byte	68
 2261 0245 45        		.byte	69
 2262 0246 46        		.byte	70
 2263 0247 47        		.byte	71
 2264 0248 48        		.byte	72
 2265 0249 49        		.byte	73
 2266 024a 4A        		.byte	74
 2267 024b 4B        		.byte	75
 2268 024c 4C        		.byte	76
 2269 024d 4D        		.byte	77
 2270 024e 4E        		.byte	78
 2271 024f 4F        		.byte	79
 2272 0250 50        		.byte	80
 2273 0251 51        		.byte	81
 2274 0252 52        		.byte	82
 2275 0253 53        		.byte	83
 2276 0254 54        		.byte	84
 2277 0255 55        		.byte	85
 2278 0256 56        		.byte	86
 2279 0257 57        		.byte	87
 2280 0258 58        		.byte	88
 2281 0259 59        		.byte	89
 2282 025a 5A        		.byte	90
 2283 025b 5B        		.byte	91
 2284 025c 5C        		.byte	92
 2285 025d 5D        		.byte	93
 2286 025e 5E        		.byte	94
 2287 025f 5F        		.byte	95
 2288 0260 60        		.byte	96
 2289 0261 61        		.byte	97
 2290 0262 62        		.byte	98
 2291 0263 63        		.byte	99
 2292 0264 64        		.byte	100
 2293 0265 65        		.byte	101
 2294 0266 66        		.byte	102
 2295 0267 67        		.byte	103
 2296 0268 68        		.byte	104
 2297 0269 69        		.byte	105
 2298 026a 6A        		.byte	106
 2299 026b 6B        		.byte	107
 2300 026c 6C        		.byte	108
 2301 026d 6D        		.byte	109
 2302 026e 6E        		.byte	110
 2303 026f 6F        		.byte	111
 2304 0270 70        		.byte	112
 2305 0271 71        		.byte	113
 2306 0272 72        		.byte	114
 2307 0273 73        		.byte	115
 2308 0274 74        		.byte	116
 2309 0275 75        		.byte	117
 2310 0276 76        		.byte	118
 2311 0277 77        		.byte	119
 2312 0278 78        		.byte	120
 2313 0279 79        		.byte	121
 2314 027a 7A        		.byte	122
 2315 027b 7B        		.byte	123
 2316 027c 7C        		.byte	124
 2317 027d 7D        		.byte	125
 2318 027e 7E        		.byte	126
 2319 027f 7F        		.byte	127
 2320 0280 80        		.byte	-128
 2321 0281 81        		.byte	-127
 2322 0282 82        		.byte	-126
 2323 0283 83        		.byte	-125
 2324 0284 84        		.byte	-124
 2325 0285 85        		.byte	-123
 2326 0286 86        		.byte	-122
 2327 0287 87        		.byte	-121
 2328 0288 88        		.byte	-120
 2329 0289 89        		.byte	-119
 2330 028a 8A        		.byte	-118
 2331 028b 8B        		.byte	-117
 2332 028c 8C        		.byte	-116
 2333 028d 8D        		.byte	-115
 2334 028e 8E        		.byte	-114
 2335 028f 8F        		.byte	-113
 2336 0290 90        		.byte	-112
 2337 0291 91        		.byte	-111
 2338 0292 92        		.byte	-110
 2339 0293 93        		.byte	-109
 2340 0294 94        		.byte	-108
 2341 0295 95        		.byte	-107
 2342 0296 96        		.byte	-106
 2343 0297 97        		.byte	-105
 2344 0298 98        		.byte	-104
 2345 0299 99        		.byte	-103
 2346 029a 9A        		.byte	-102
 2347 029b 9B        		.byte	-101
 2348 029c 9C        		.byte	-100
 2349 029d 9D        		.byte	-99
 2350 029e 9E        		.byte	-98
 2351 029f 9F        		.byte	-97
 2352 02a0 A0        		.byte	-96
 2353 02a1 A1        		.byte	-95
 2354 02a2 A2        		.byte	-94
 2355 02a3 A3        		.byte	-93
 2356 02a4 A4        		.byte	-92
 2357 02a5 A5        		.byte	-91
 2358 02a6 A6        		.byte	-90
 2359 02a7 A7        		.byte	-89
 2360 02a8 A8        		.byte	-88
 2361 02a9 A9        		.byte	-87
 2362 02aa AA        		.byte	-86
 2363 02ab AB        		.byte	-85
 2364 02ac AC        		.byte	-84
 2365 02ad AD        		.byte	-83
 2366 02ae AE        		.byte	-82
 2367 02af AF        		.byte	-81
 2368 02b0 B0        		.byte	-80
 2369 02b1 B1        		.byte	-79
 2370 02b2 B2        		.byte	-78
 2371 02b3 B3        		.byte	-77
 2372 02b4 B4        		.byte	-76
 2373 02b5 B5        		.byte	-75
 2374 02b6 B6        		.byte	-74
 2375 02b7 B7        		.byte	-73
 2376 02b8 B8        		.byte	-72
 2377 02b9 B9        		.byte	-71
 2378 02ba BA        		.byte	-70
 2379 02bb BB        		.byte	-69
 2380 02bc BC        		.byte	-68
 2381 02bd BD        		.byte	-67
 2382 02be BE        		.byte	-66
 2383 02bf BF        		.byte	-65
 2384 02c0 C0        		.byte	-64
 2385 02c1 C1        		.byte	-63
 2386 02c2 C2        		.byte	-62
 2387 02c3 C3        		.byte	-61
 2388 02c4 C4        		.byte	-60
 2389 02c5 C5        		.byte	-59
 2390 02c6 C6        		.byte	-58
 2391 02c7 C7        		.byte	-57
 2392 02c8 C8        		.byte	-56
 2393 02c9 C9        		.byte	-55
 2394 02ca CA        		.byte	-54
 2395 02cb CB        		.byte	-53
 2396 02cc CC        		.byte	-52
 2397 02cd CD        		.byte	-51
 2398 02ce CE        		.byte	-50
 2399 02cf CF        		.byte	-49
 2400 02d0 D0        		.byte	-48
 2401 02d1 D1        		.byte	-47
 2402 02d2 D2        		.byte	-46
 2403 02d3 D3        		.byte	-45
 2404 02d4 D4        		.byte	-44
 2405 02d5 D5        		.byte	-43
 2406 02d6 D6        		.byte	-42
 2407 02d7 D7        		.byte	-41
 2408 02d8 D8        		.byte	-40
 2409 02d9 D9        		.byte	-39
 2410 02da DA        		.byte	-38
 2411 02db DB        		.byte	-37
 2412 02dc DC        		.byte	-36
 2413 02dd DD        		.byte	-35
 2414 02de DE        		.byte	-34
 2415 02df DF        		.byte	-33
 2416 02e0 E0        		.byte	-32
 2417 02e1 E1        		.byte	-31
 2418 02e2 E2        		.byte	-30
 2419 02e3 E3        		.byte	-29
 2420 02e4 E4        		.byte	-28
 2421 02e5 E5        		.byte	-27
 2422 02e6 E6        		.byte	-26
 2423 02e7 E7        		.byte	-25
 2424 02e8 E8        		.byte	-24
 2425 02e9 E9        		.byte	-23
 2426 02ea EA        		.byte	-22
 2427 02eb EB        		.byte	-21
 2428 02ec EC        		.byte	-20
 2429 02ed ED        		.byte	-19
 2430 02ee EE        		.byte	-18
 2431 02ef EF        		.byte	-17
 2432 02f0 F0        		.byte	-16
 2433 02f1 F1        		.byte	-15
 2434 02f2 F2        		.byte	-14
 2435 02f3 F3        		.byte	-13
 2436 02f4 F4        		.byte	-12
 2437 02f5 F5        		.byte	-11
 2438 02f6 F6        		.byte	-10
 2439 02f7 F7        		.byte	-9
 2440 02f8 F8        		.byte	-8
 2441 02f9 F9        		.byte	-7
 2442 02fa FA        		.byte	-6
 2443 02fb FB        		.byte	-5
 2444 02fc FC        		.byte	-4
 2445 02fd FD        		.byte	-3
 2446 02fe FE        		.byte	-2
 2447 02ff FF        		.byte	-1
 2448 0300 00        		.byte	0
 2449 0301 10        		.byte	16
 2450 0302 20        		.byte	32
 2451 0303 30        		.byte	48
 2452 0304 40        		.byte	64
 2453 0305 50        		.byte	80
 2454 0306 60        		.byte	96
 2455 0307 70        		.byte	112
 2456 0308 80        		.byte	-128
 2457 0309 90        		.byte	-112
 2458 030a A0        		.byte	-96
 2459 030b B0        		.byte	-80
 2460 030c C0        		.byte	-64
 2461 030d D0        		.byte	-48
 2462 030e E0        		.byte	-32
 2463 030f F0        		.byte	-16
 2464 0310 C3        		.byte	-61
 2465 0311 D3        		.byte	-45
 2466 0312 E3        		.byte	-29
 2467 0313 F3        		.byte	-13
 2468 0314 83        		.byte	-125
 2469 0315 93        		.byte	-109
 2470 0316 A3        		.byte	-93
 2471 0317 B3        		.byte	-77
 2472 0318 43        		.byte	67
 2473 0319 53        		.byte	83
 2474 031a 63        		.byte	99
 2475 031b 73        		.byte	115
 2476 031c 03        		.byte	3
 2477 031d 13        		.byte	19
 2478 031e 23        		.byte	35
 2479 031f 33        		.byte	51
 2480 0320 45        		.byte	69
 2481 0321 55        		.byte	85
 2482 0322 65        		.byte	101
 2483 0323 75        		.byte	117
 2484 0324 05        		.byte	5
 2485 0325 15        		.byte	21
 2486 0326 25        		.byte	37
 2487 0327 35        		.byte	53
 2488 0328 C5        		.byte	-59
 2489 0329 D5        		.byte	-43
 2490 032a E5        		.byte	-27
 2491 032b F5        		.byte	-11
 2492 032c 85        		.byte	-123
 2493 032d 95        		.byte	-107
 2494 032e A5        		.byte	-91
 2495 032f B5        		.byte	-75
 2496 0330 86        		.byte	-122
 2497 0331 96        		.byte	-106
 2498 0332 A6        		.byte	-90
 2499 0333 B6        		.byte	-74
 2500 0334 C6        		.byte	-58
 2501 0335 D6        		.byte	-42
 2502 0336 E6        		.byte	-26
 2503 0337 F6        		.byte	-10
 2504 0338 06        		.byte	6
 2505 0339 16        		.byte	22
 2506 033a 26        		.byte	38
 2507 033b 36        		.byte	54
 2508 033c 46        		.byte	70
 2509 033d 56        		.byte	86
 2510 033e 66        		.byte	102
 2511 033f 76        		.byte	118
 2512 0340 8A        		.byte	-118
 2513 0341 9A        		.byte	-102
 2514 0342 AA        		.byte	-86
 2515 0343 BA        		.byte	-70
 2516 0344 CA        		.byte	-54
 2517 0345 DA        		.byte	-38
 2518 0346 EA        		.byte	-22
 2519 0347 FA        		.byte	-6
 2520 0348 0A        		.byte	10
 2521 0349 1A        		.byte	26
 2522 034a 2A        		.byte	42
 2523 034b 3A        		.byte	58
 2524 034c 4A        		.byte	74
 2525 034d 5A        		.byte	90
 2526 034e 6A        		.byte	106
 2527 034f 7A        		.byte	122
 2528 0350 49        		.byte	73
 2529 0351 59        		.byte	89
 2530 0352 69        		.byte	105
 2531 0353 79        		.byte	121
 2532 0354 09        		.byte	9
 2533 0355 19        		.byte	25
 2534 0356 29        		.byte	41
 2535 0357 39        		.byte	57
 2536 0358 C9        		.byte	-55
 2537 0359 D9        		.byte	-39
 2538 035a E9        		.byte	-23
 2539 035b F9        		.byte	-7
 2540 035c 89        		.byte	-119
 2541 035d 99        		.byte	-103
 2542 035e A9        		.byte	-87
 2543 035f B9        		.byte	-71
 2544 0360 CF        		.byte	-49
 2545 0361 DF        		.byte	-33
 2546 0362 EF        		.byte	-17
 2547 0363 FF        		.byte	-1
 2548 0364 8F        		.byte	-113
 2549 0365 9F        		.byte	-97
 2550 0366 AF        		.byte	-81
 2551 0367 BF        		.byte	-65
 2552 0368 4F        		.byte	79
 2553 0369 5F        		.byte	95
 2554 036a 6F        		.byte	111
 2555 036b 7F        		.byte	127
 2556 036c 0F        		.byte	15
 2557 036d 1F        		.byte	31
 2558 036e 2F        		.byte	47
 2559 036f 3F        		.byte	63
 2560 0370 0C        		.byte	12
 2561 0371 1C        		.byte	28
 2562 0372 2C        		.byte	44
 2563 0373 3C        		.byte	60
 2564 0374 4C        		.byte	76
 2565 0375 5C        		.byte	92
 2566 0376 6C        		.byte	108
 2567 0377 7C        		.byte	124
 2568 0378 8C        		.byte	-116
 2569 0379 9C        		.byte	-100
 2570 037a AC        		.byte	-84
 2571 037b BC        		.byte	-68
 2572 037c CC        		.byte	-52
 2573 037d DC        		.byte	-36
 2574 037e EC        		.byte	-20
 2575 037f FC        		.byte	-4
 2576 0380 D7        		.byte	-41
 2577 0381 C7        		.byte	-57
 2578 0382 F7        		.byte	-9
 2579 0383 E7        		.byte	-25
 2580 0384 97        		.byte	-105
 2581 0385 87        		.byte	-121
 2582 0386 B7        		.byte	-73
 2583 0387 A7        		.byte	-89
 2584 0388 57        		.byte	87
 2585 0389 47        		.byte	71
 2586 038a 77        		.byte	119
 2587 038b 67        		.byte	103
 2588 038c 17        		.byte	23
 2589 038d 07        		.byte	7
 2590 038e 37        		.byte	55
 2591 038f 27        		.byte	39
 2592 0390 14        		.byte	20
 2593 0391 04        		.byte	4
 2594 0392 34        		.byte	52
 2595 0393 24        		.byte	36
 2596 0394 54        		.byte	84
 2597 0395 44        		.byte	68
 2598 0396 74        		.byte	116
 2599 0397 64        		.byte	100
 2600 0398 94        		.byte	-108
 2601 0399 84        		.byte	-124
 2602 039a B4        		.byte	-76
 2603 039b A4        		.byte	-92
 2604 039c D4        		.byte	-44
 2605 039d C4        		.byte	-60
 2606 039e F4        		.byte	-12
 2607 039f E4        		.byte	-28
 2608 03a0 92        		.byte	-110
 2609 03a1 82        		.byte	-126
 2610 03a2 B2        		.byte	-78
 2611 03a3 A2        		.byte	-94
 2612 03a4 D2        		.byte	-46
 2613 03a5 C2        		.byte	-62
 2614 03a6 F2        		.byte	-14
 2615 03a7 E2        		.byte	-30
 2616 03a8 12        		.byte	18
 2617 03a9 02        		.byte	2
 2618 03aa 32        		.byte	50
 2619 03ab 22        		.byte	34
 2620 03ac 52        		.byte	82
 2621 03ad 42        		.byte	66
 2622 03ae 72        		.byte	114
 2623 03af 62        		.byte	98
 2624 03b0 51        		.byte	81
 2625 03b1 41        		.byte	65
 2626 03b2 71        		.byte	113
 2627 03b3 61        		.byte	97
 2628 03b4 11        		.byte	17
 2629 03b5 01        		.byte	1
 2630 03b6 31        		.byte	49
 2631 03b7 21        		.byte	33
 2632 03b8 D1        		.byte	-47
 2633 03b9 C1        		.byte	-63
 2634 03ba F1        		.byte	-15
 2635 03bb E1        		.byte	-31
 2636 03bc 91        		.byte	-111
 2637 03bd 81        		.byte	-127
 2638 03be B1        		.byte	-79
 2639 03bf A1        		.byte	-95
 2640 03c0 5D        		.byte	93
 2641 03c1 4D        		.byte	77
 2642 03c2 7D        		.byte	125
 2643 03c3 6D        		.byte	109
 2644 03c4 1D        		.byte	29
 2645 03c5 0D        		.byte	13
 2646 03c6 3D        		.byte	61
 2647 03c7 2D        		.byte	45
 2648 03c8 DD        		.byte	-35
 2649 03c9 CD        		.byte	-51
 2650 03ca FD        		.byte	-3
 2651 03cb ED        		.byte	-19
 2652 03cc 9D        		.byte	-99
 2653 03cd 8D        		.byte	-115
 2654 03ce BD        		.byte	-67
 2655 03cf AD        		.byte	-83
 2656 03d0 9E        		.byte	-98
 2657 03d1 8E        		.byte	-114
 2658 03d2 BE        		.byte	-66
 2659 03d3 AE        		.byte	-82
 2660 03d4 DE        		.byte	-34
 2661 03d5 CE        		.byte	-50
 2662 03d6 FE        		.byte	-2
 2663 03d7 EE        		.byte	-18
 2664 03d8 1E        		.byte	30
 2665 03d9 0E        		.byte	14
 2666 03da 3E        		.byte	62
 2667 03db 2E        		.byte	46
 2668 03dc 5E        		.byte	94
 2669 03dd 4E        		.byte	78
 2670 03de 7E        		.byte	126
 2671 03df 6E        		.byte	110
 2672 03e0 18        		.byte	24
 2673 03e1 08        		.byte	8
 2674 03e2 38        		.byte	56
 2675 03e3 28        		.byte	40
 2676 03e4 58        		.byte	88
 2677 03e5 48        		.byte	72
 2678 03e6 78        		.byte	120
 2679 03e7 68        		.byte	104
 2680 03e8 98        		.byte	-104
 2681 03e9 88        		.byte	-120
 2682 03ea B8        		.byte	-72
 2683 03eb A8        		.byte	-88
 2684 03ec D8        		.byte	-40
 2685 03ed C8        		.byte	-56
 2686 03ee F8        		.byte	-8
 2687 03ef E8        		.byte	-24
 2688 03f0 DB        		.byte	-37
 2689 03f1 CB        		.byte	-53
 2690 03f2 FB        		.byte	-5
 2691 03f3 EB        		.byte	-21
 2692 03f4 9B        		.byte	-101
 2693 03f5 8B        		.byte	-117
 2694 03f6 BB        		.byte	-69
 2695 03f7 AB        		.byte	-85
 2696 03f8 5B        		.byte	91
 2697 03f9 4B        		.byte	75
 2698 03fa 7B        		.byte	123
 2699 03fb 6B        		.byte	107
 2700 03fc 1B        		.byte	27
 2701 03fd 0B        		.byte	11
 2702 03fe 3B        		.byte	59
 2703 03ff 2B        		.byte	43
 2704 0400 00        		.byte	0
 2705 0401 20        		.byte	32
 2706 0402 40        		.byte	64
 2707 0403 60        		.byte	96
 2708 0404 80        		.byte	-128
 2709 0405 A0        		.byte	-96
 2710 0406 C0        		.byte	-64
 2711 0407 E0        		.byte	-32
 2712 0408 C3        		.byte	-61
 2713 0409 E3        		.byte	-29
 2714 040a 83        		.byte	-125
 2715 040b A3        		.byte	-93
 2716 040c 43        		.byte	67
 2717 040d 63        		.byte	99
 2718 040e 03        		.byte	3
 2719 040f 23        		.byte	35
 2720 0410 45        		.byte	69
 2721 0411 65        		.byte	101
 2722 0412 05        		.byte	5
 2723 0413 25        		.byte	37
 2724 0414 C5        		.byte	-59
 2725 0415 E5        		.byte	-27
 2726 0416 85        		.byte	-123
 2727 0417 A5        		.byte	-91
 2728 0418 86        		.byte	-122
 2729 0419 A6        		.byte	-90
 2730 041a C6        		.byte	-58
 2731 041b E6        		.byte	-26
 2732 041c 06        		.byte	6
 2733 041d 26        		.byte	38
 2734 041e 46        		.byte	70
 2735 041f 66        		.byte	102
 2736 0420 8A        		.byte	-118
 2737 0421 AA        		.byte	-86
 2738 0422 CA        		.byte	-54
 2739 0423 EA        		.byte	-22
 2740 0424 0A        		.byte	10
 2741 0425 2A        		.byte	42
 2742 0426 4A        		.byte	74
 2743 0427 6A        		.byte	106
 2744 0428 49        		.byte	73
 2745 0429 69        		.byte	105
 2746 042a 09        		.byte	9
 2747 042b 29        		.byte	41
 2748 042c C9        		.byte	-55
 2749 042d E9        		.byte	-23
 2750 042e 89        		.byte	-119
 2751 042f A9        		.byte	-87
 2752 0430 CF        		.byte	-49
 2753 0431 EF        		.byte	-17
 2754 0432 8F        		.byte	-113
 2755 0433 AF        		.byte	-81
 2756 0434 4F        		.byte	79
 2757 0435 6F        		.byte	111
 2758 0436 0F        		.byte	15
 2759 0437 2F        		.byte	47
 2760 0438 0C        		.byte	12
 2761 0439 2C        		.byte	44
 2762 043a 4C        		.byte	76
 2763 043b 6C        		.byte	108
 2764 043c 8C        		.byte	-116
 2765 043d AC        		.byte	-84
 2766 043e CC        		.byte	-52
 2767 043f EC        		.byte	-20
 2768 0440 D7        		.byte	-41
 2769 0441 F7        		.byte	-9
 2770 0442 97        		.byte	-105
 2771 0443 B7        		.byte	-73
 2772 0444 57        		.byte	87
 2773 0445 77        		.byte	119
 2774 0446 17        		.byte	23
 2775 0447 37        		.byte	55
 2776 0448 14        		.byte	20
 2777 0449 34        		.byte	52
 2778 044a 54        		.byte	84
 2779 044b 74        		.byte	116
 2780 044c 94        		.byte	-108
 2781 044d B4        		.byte	-76
 2782 044e D4        		.byte	-44
 2783 044f F4        		.byte	-12
 2784 0450 92        		.byte	-110
 2785 0451 B2        		.byte	-78
 2786 0452 D2        		.byte	-46
 2787 0453 F2        		.byte	-14
 2788 0454 12        		.byte	18
 2789 0455 32        		.byte	50
 2790 0456 52        		.byte	82
 2791 0457 72        		.byte	114
 2792 0458 51        		.byte	81
 2793 0459 71        		.byte	113
 2794 045a 11        		.byte	17
 2795 045b 31        		.byte	49
 2796 045c D1        		.byte	-47
 2797 045d F1        		.byte	-15
 2798 045e 91        		.byte	-111
 2799 045f B1        		.byte	-79
 2800 0460 5D        		.byte	93
 2801 0461 7D        		.byte	125
 2802 0462 1D        		.byte	29
 2803 0463 3D        		.byte	61
 2804 0464 DD        		.byte	-35
 2805 0465 FD        		.byte	-3
 2806 0466 9D        		.byte	-99
 2807 0467 BD        		.byte	-67
 2808 0468 9E        		.byte	-98
 2809 0469 BE        		.byte	-66
 2810 046a DE        		.byte	-34
 2811 046b FE        		.byte	-2
 2812 046c 1E        		.byte	30
 2813 046d 3E        		.byte	62
 2814 046e 5E        		.byte	94
 2815 046f 7E        		.byte	126
 2816 0470 18        		.byte	24
 2817 0471 38        		.byte	56
 2818 0472 58        		.byte	88
 2819 0473 78        		.byte	120
 2820 0474 98        		.byte	-104
 2821 0475 B8        		.byte	-72
 2822 0476 D8        		.byte	-40
 2823 0477 F8        		.byte	-8
 2824 0478 DB        		.byte	-37
 2825 0479 FB        		.byte	-5
 2826 047a 9B        		.byte	-101
 2827 047b BB        		.byte	-69
 2828 047c 5B        		.byte	91
 2829 047d 7B        		.byte	123
 2830 047e 1B        		.byte	27
 2831 047f 3B        		.byte	59
 2832 0480 6D        		.byte	109
 2833 0481 4D        		.byte	77
 2834 0482 2D        		.byte	45
 2835 0483 0D        		.byte	13
 2836 0484 ED        		.byte	-19
 2837 0485 CD        		.byte	-51
 2838 0486 AD        		.byte	-83
 2839 0487 8D        		.byte	-115
 2840 0488 AE        		.byte	-82
 2841 0489 8E        		.byte	-114
 2842 048a EE        		.byte	-18
 2843 048b CE        		.byte	-50
 2844 048c 2E        		.byte	46
 2845 048d 0E        		.byte	14
 2846 048e 6E        		.byte	110
 2847 048f 4E        		.byte	78
 2848 0490 28        		.byte	40
 2849 0491 08        		.byte	8
 2850 0492 68        		.byte	104
 2851 0493 48        		.byte	72
 2852 0494 A8        		.byte	-88
 2853 0495 88        		.byte	-120
 2854 0496 E8        		.byte	-24
 2855 0497 C8        		.byte	-56
 2856 0498 EB        		.byte	-21
 2857 0499 CB        		.byte	-53
 2858 049a AB        		.byte	-85
 2859 049b 8B        		.byte	-117
 2860 049c 6B        		.byte	107
 2861 049d 4B        		.byte	75
 2862 049e 2B        		.byte	43
 2863 049f 0B        		.byte	11
 2864 04a0 E7        		.byte	-25
 2865 04a1 C7        		.byte	-57
 2866 04a2 A7        		.byte	-89
 2867 04a3 87        		.byte	-121
 2868 04a4 67        		.byte	103
 2869 04a5 47        		.byte	71
 2870 04a6 27        		.byte	39
 2871 04a7 07        		.byte	7
 2872 04a8 24        		.byte	36
 2873 04a9 04        		.byte	4
 2874 04aa 64        		.byte	100
 2875 04ab 44        		.byte	68
 2876 04ac A4        		.byte	-92
 2877 04ad 84        		.byte	-124
 2878 04ae E4        		.byte	-28
 2879 04af C4        		.byte	-60
 2880 04b0 A2        		.byte	-94
 2881 04b1 82        		.byte	-126
 2882 04b2 E2        		.byte	-30
 2883 04b3 C2        		.byte	-62
 2884 04b4 22        		.byte	34
 2885 04b5 02        		.byte	2
 2886 04b6 62        		.byte	98
 2887 04b7 42        		.byte	66
 2888 04b8 61        		.byte	97
 2889 04b9 41        		.byte	65
 2890 04ba 21        		.byte	33
 2891 04bb 01        		.byte	1
 2892 04bc E1        		.byte	-31
 2893 04bd C1        		.byte	-63
 2894 04be A1        		.byte	-95
 2895 04bf 81        		.byte	-127
 2896 04c0 BA        		.byte	-70
 2897 04c1 9A        		.byte	-102
 2898 04c2 FA        		.byte	-6
 2899 04c3 DA        		.byte	-38
 2900 04c4 3A        		.byte	58
 2901 04c5 1A        		.byte	26
 2902 04c6 7A        		.byte	122
 2903 04c7 5A        		.byte	90
 2904 04c8 79        		.byte	121
 2905 04c9 59        		.byte	89
 2906 04ca 39        		.byte	57
 2907 04cb 19        		.byte	25
 2908 04cc F9        		.byte	-7
 2909 04cd D9        		.byte	-39
 2910 04ce B9        		.byte	-71
 2911 04cf 99        		.byte	-103
 2912 04d0 FF        		.byte	-1
 2913 04d1 DF        		.byte	-33
 2914 04d2 BF        		.byte	-65
 2915 04d3 9F        		.byte	-97
 2916 04d4 7F        		.byte	127
 2917 04d5 5F        		.byte	95
 2918 04d6 3F        		.byte	63
 2919 04d7 1F        		.byte	31
 2920 04d8 3C        		.byte	60
 2921 04d9 1C        		.byte	28
 2922 04da 7C        		.byte	124
 2923 04db 5C        		.byte	92
 2924 04dc BC        		.byte	-68
 2925 04dd 9C        		.byte	-100
 2926 04de FC        		.byte	-4
 2927 04df DC        		.byte	-36
 2928 04e0 30        		.byte	48
 2929 04e1 10        		.byte	16
 2930 04e2 70        		.byte	112
 2931 04e3 50        		.byte	80
 2932 04e4 B0        		.byte	-80
 2933 04e5 90        		.byte	-112
 2934 04e6 F0        		.byte	-16
 2935 04e7 D0        		.byte	-48
 2936 04e8 F3        		.byte	-13
 2937 04e9 D3        		.byte	-45
 2938 04ea B3        		.byte	-77
 2939 04eb 93        		.byte	-109
 2940 04ec 73        		.byte	115
 2941 04ed 53        		.byte	83
 2942 04ee 33        		.byte	51
 2943 04ef 13        		.byte	19
 2944 04f0 75        		.byte	117
 2945 04f1 55        		.byte	85
 2946 04f2 35        		.byte	53
 2947 04f3 15        		.byte	21
 2948 04f4 F5        		.byte	-11
 2949 04f5 D5        		.byte	-43
 2950 04f6 B5        		.byte	-75
 2951 04f7 95        		.byte	-107
 2952 04f8 B6        		.byte	-74
 2953 04f9 96        		.byte	-106
 2954 04fa F6        		.byte	-10
 2955 04fb D6        		.byte	-42
 2956 04fc 36        		.byte	54
 2957 04fd 16        		.byte	22
 2958 04fe 76        		.byte	118
 2959 04ff 56        		.byte	86
 2960 0500 00        		.byte	0
 2961 0501 85        		.byte	-123
 2962 0502 C9        		.byte	-55
 2963 0503 4C        		.byte	76
 2964 0504 51        		.byte	81
 2965 0505 D4        		.byte	-44
 2966 0506 98        		.byte	-104
 2967 0507 1D        		.byte	29
 2968 0508 A2        		.byte	-94
 2969 0509 27        		.byte	39
 2970 050a 6B        		.byte	107
 2971 050b EE        		.byte	-18
 2972 050c F3        		.byte	-13
 2973 050d 76        		.byte	118
 2974 050e 3A        		.byte	58
 2975 050f BF        		.byte	-65
 2976 0510 87        		.byte	-121
 2977 0511 02        		.byte	2
 2978 0512 4E        		.byte	78
 2979 0513 CB        		.byte	-53
 2980 0514 D6        		.byte	-42
 2981 0515 53        		.byte	83
 2982 0516 1F        		.byte	31
 2983 0517 9A        		.byte	-102
 2984 0518 25        		.byte	37
 2985 0519 A0        		.byte	-96
 2986 051a EC        		.byte	-20
 2987 051b 69        		.byte	105
 2988 051c 74        		.byte	116
 2989 051d F1        		.byte	-15
 2990 051e BD        		.byte	-67
 2991 051f 38        		.byte	56
 2992 0520 CD        		.byte	-51
 2993 0521 48        		.byte	72
 2994 0522 04        		.byte	4
 2995 0523 81        		.byte	-127
 2996 0524 9C        		.byte	-100
 2997 0525 19        		.byte	25
 2998 0526 55        		.byte	85
 2999 0527 D0        		.byte	-48
 3000 0528 6F        		.byte	111
 3001 0529 EA        		.byte	-22
 3002 052a A6        		.byte	-90
 3003 052b 23        		.byte	35
 3004 052c 3E        		.byte	62
 3005 052d BB        		.byte	-69
 3006 052e F7        		.byte	-9
 3007 052f 72        		.byte	114
 3008 0530 4A        		.byte	74
 3009 0531 CF        		.byte	-49
 3010 0532 83        		.byte	-125
 3011 0533 06        		.byte	6
 3012 0534 1B        		.byte	27
 3013 0535 9E        		.byte	-98
 3014 0536 D2        		.byte	-46
 3015 0537 57        		.byte	87
 3016 0538 E8        		.byte	-24
 3017 0539 6D        		.byte	109
 3018 053a 21        		.byte	33
 3019 053b A4        		.byte	-92
 3020 053c B9        		.byte	-71
 3021 053d 3C        		.byte	60
 3022 053e 70        		.byte	112
 3023 053f F5        		.byte	-11
 3024 0540 59        		.byte	89
 3025 0541 DC        		.byte	-36
 3026 0542 90        		.byte	-112
 3027 0543 15        		.byte	21
 3028 0544 08        		.byte	8
 3029 0545 8D        		.byte	-115
 3030 0546 C1        		.byte	-63
 3031 0547 44        		.byte	68
 3032 0548 FB        		.byte	-5
 3033 0549 7E        		.byte	126
 3034 054a 32        		.byte	50
 3035 054b B7        		.byte	-73
 3036 054c AA        		.byte	-86
 3037 054d 2F        		.byte	47
 3038 054e 63        		.byte	99
 3039 054f E6        		.byte	-26
 3040 0550 DE        		.byte	-34
 3041 0551 5B        		.byte	91
 3042 0552 17        		.byte	23
 3043 0553 92        		.byte	-110
 3044 0554 8F        		.byte	-113
 3045 0555 0A        		.byte	10
 3046 0556 46        		.byte	70
 3047 0557 C3        		.byte	-61
 3048 0558 7C        		.byte	124
 3049 0559 F9        		.byte	-7
 3050 055a B5        		.byte	-75
 3051 055b 30        		.byte	48
 3052 055c 2D        		.byte	45
 3053 055d A8        		.byte	-88
 3054 055e E4        		.byte	-28
 3055 055f 61        		.byte	97
 3056 0560 94        		.byte	-108
 3057 0561 11        		.byte	17
 3058 0562 5D        		.byte	93
 3059 0563 D8        		.byte	-40
 3060 0564 C5        		.byte	-59
 3061 0565 40        		.byte	64
 3062 0566 0C        		.byte	12
 3063 0567 89        		.byte	-119
 3064 0568 36        		.byte	54
 3065 0569 B3        		.byte	-77
 3066 056a FF        		.byte	-1
 3067 056b 7A        		.byte	122
 3068 056c 67        		.byte	103
 3069 056d E2        		.byte	-30
 3070 056e AE        		.byte	-82
 3071 056f 2B        		.byte	43
 3072 0570 13        		.byte	19
 3073 0571 96        		.byte	-106
 3074 0572 DA        		.byte	-38
 3075 0573 5F        		.byte	95
 3076 0574 42        		.byte	66
 3077 0575 C7        		.byte	-57
 3078 0576 8B        		.byte	-117
 3079 0577 0E        		.byte	14
 3080 0578 B1        		.byte	-79
 3081 0579 34        		.byte	52
 3082 057a 78        		.byte	120
 3083 057b FD        		.byte	-3
 3084 057c E0        		.byte	-32
 3085 057d 65        		.byte	101
 3086 057e 29        		.byte	41
 3087 057f AC        		.byte	-84
 3088 0580 B2        		.byte	-78
 3089 0581 37        		.byte	55
 3090 0582 7B        		.byte	123
 3091 0583 FE        		.byte	-2
 3092 0584 E3        		.byte	-29
 3093 0585 66        		.byte	102
 3094 0586 2A        		.byte	42
 3095 0587 AF        		.byte	-81
 3096 0588 10        		.byte	16
 3097 0589 95        		.byte	-107
 3098 058a D9        		.byte	-39
 3099 058b 5C        		.byte	92
 3100 058c 41        		.byte	65
 3101 058d C4        		.byte	-60
 3102 058e 88        		.byte	-120
 3103 058f 0D        		.byte	13
 3104 0590 35        		.byte	53
 3105 0591 B0        		.byte	-80
 3106 0592 FC        		.byte	-4
 3107 0593 79        		.byte	121
 3108 0594 64        		.byte	100
 3109 0595 E1        		.byte	-31
 3110 0596 AD        		.byte	-83
 3111 0597 28        		.byte	40
 3112 0598 97        		.byte	-105
 3113 0599 12        		.byte	18
 3114 059a 5E        		.byte	94
 3115 059b DB        		.byte	-37
 3116 059c C6        		.byte	-58
 3117 059d 43        		.byte	67
 3118 059e 0F        		.byte	15
 3119 059f 8A        		.byte	-118
 3120 05a0 7F        		.byte	127
 3121 05a1 FA        		.byte	-6
 3122 05a2 B6        		.byte	-74
 3123 05a3 33        		.byte	51
 3124 05a4 2E        		.byte	46
 3125 05a5 AB        		.byte	-85
 3126 05a6 E7        		.byte	-25
 3127 05a7 62        		.byte	98
 3128 05a8 DD        		.byte	-35
 3129 05a9 58        		.byte	88
 3130 05aa 14        		.byte	20
 3131 05ab 91        		.byte	-111
 3132 05ac 8C        		.byte	-116
 3133 05ad 09        		.byte	9
 3134 05ae 45        		.byte	69
 3135 05af C0        		.byte	-64
 3136 05b0 F8        		.byte	-8
 3137 05b1 7D        		.byte	125
 3138 05b2 31        		.byte	49
 3139 05b3 B4        		.byte	-76
 3140 05b4 A9        		.byte	-87
 3141 05b5 2C        		.byte	44
 3142 05b6 60        		.byte	96
 3143 05b7 E5        		.byte	-27
 3144 05b8 5A        		.byte	90
 3145 05b9 DF        		.byte	-33
 3146 05ba 93        		.byte	-109
 3147 05bb 16        		.byte	22
 3148 05bc 0B        		.byte	11
 3149 05bd 8E        		.byte	-114
 3150 05be C2        		.byte	-62
 3151 05bf 47        		.byte	71
 3152 05c0 EB        		.byte	-21
 3153 05c1 6E        		.byte	110
 3154 05c2 22        		.byte	34
 3155 05c3 A7        		.byte	-89
 3156 05c4 BA        		.byte	-70
 3157 05c5 3F        		.byte	63
 3158 05c6 73        		.byte	115
 3159 05c7 F6        		.byte	-10
 3160 05c8 49        		.byte	73
 3161 05c9 CC        		.byte	-52
 3162 05ca 80        		.byte	-128
 3163 05cb 05        		.byte	5
 3164 05cc 18        		.byte	24
 3165 05cd 9D        		.byte	-99
 3166 05ce D1        		.byte	-47
 3167 05cf 54        		.byte	84
 3168 05d0 6C        		.byte	108
 3169 05d1 E9        		.byte	-23
 3170 05d2 A5        		.byte	-91
 3171 05d3 20        		.byte	32
 3172 05d4 3D        		.byte	61
 3173 05d5 B8        		.byte	-72
 3174 05d6 F4        		.byte	-12
 3175 05d7 71        		.byte	113
 3176 05d8 CE        		.byte	-50
 3177 05d9 4B        		.byte	75
 3178 05da 07        		.byte	7
 3179 05db 82        		.byte	-126
 3180 05dc 9F        		.byte	-97
 3181 05dd 1A        		.byte	26
 3182 05de 56        		.byte	86
 3183 05df D3        		.byte	-45
 3184 05e0 26        		.byte	38
 3185 05e1 A3        		.byte	-93
 3186 05e2 EF        		.byte	-17
 3187 05e3 6A        		.byte	106
 3188 05e4 77        		.byte	119
 3189 05e5 F2        		.byte	-14
 3190 05e6 BE        		.byte	-66
 3191 05e7 3B        		.byte	59
 3192 05e8 84        		.byte	-124
 3193 05e9 01        		.byte	1
 3194 05ea 4D        		.byte	77
 3195 05eb C8        		.byte	-56
 3196 05ec D5        		.byte	-43
 3197 05ed 50        		.byte	80
 3198 05ee 1C        		.byte	28
 3199 05ef 99        		.byte	-103
 3200 05f0 A1        		.byte	-95
 3201 05f1 24        		.byte	36
 3202 05f2 68        		.byte	104
 3203 05f3 ED        		.byte	-19
 3204 05f4 F0        		.byte	-16
 3205 05f5 75        		.byte	117
 3206 05f6 39        		.byte	57
 3207 05f7 BC        		.byte	-68
 3208 05f8 03        		.byte	3
 3209 05f9 86        		.byte	-122
 3210 05fa CA        		.byte	-54
 3211 05fb 4F        		.byte	79
 3212 05fc 52        		.byte	82
 3213 05fd D7        		.byte	-41
 3214 05fe 9B        		.byte	-101
 3215 05ff 1E        		.byte	30
 3216 0600 00        		.byte	0
 3217 0601 94        		.byte	-108
 3218 0602 EB        		.byte	-21
 3219 0603 7F        		.byte	127
 3220 0604 15        		.byte	21
 3221 0605 81        		.byte	-127
 3222 0606 FE        		.byte	-2
 3223 0607 6A        		.byte	106
 3224 0608 2A        		.byte	42
 3225 0609 BE        		.byte	-66
 3226 060a C1        		.byte	-63
 3227 060b 55        		.byte	85
 3228 060c 3F        		.byte	63
 3229 060d AB        		.byte	-85
 3230 060e D4        		.byte	-44
 3231 060f 40        		.byte	64
 3232 0610 54        		.byte	84
 3233 0611 C0        		.byte	-64
 3234 0612 BF        		.byte	-65
 3235 0613 2B        		.byte	43
 3236 0614 41        		.byte	65
 3237 0615 D5        		.byte	-43
 3238 0616 AA        		.byte	-86
 3239 0617 3E        		.byte	62
 3240 0618 7E        		.byte	126
 3241 0619 EA        		.byte	-22
 3242 061a 95        		.byte	-107
 3243 061b 01        		.byte	1
 3244 061c 6B        		.byte	107
 3245 061d FF        		.byte	-1
 3246 061e 80        		.byte	-128
 3247 061f 14        		.byte	20
 3248 0620 A8        		.byte	-88
 3249 0621 3C        		.byte	60
 3250 0622 43        		.byte	67
 3251 0623 D7        		.byte	-41
 3252 0624 BD        		.byte	-67
 3253 0625 29        		.byte	41
 3254 0626 56        		.byte	86
 3255 0627 C2        		.byte	-62
 3256 0628 82        		.byte	-126
 3257 0629 16        		.byte	22
 3258 062a 69        		.byte	105
 3259 062b FD        		.byte	-3
 3260 062c 97        		.byte	-105
 3261 062d 03        		.byte	3
 3262 062e 7C        		.byte	124
 3263 062f E8        		.byte	-24
 3264 0630 FC        		.byte	-4
 3265 0631 68        		.byte	104
 3266 0632 17        		.byte	23
 3267 0633 83        		.byte	-125
 3268 0634 E9        		.byte	-23
 3269 0635 7D        		.byte	125
 3270 0636 02        		.byte	2
 3271 0637 96        		.byte	-106
 3272 0638 D6        		.byte	-42
 3273 0639 42        		.byte	66
 3274 063a 3D        		.byte	61
 3275 063b A9        		.byte	-87
 3276 063c C3        		.byte	-61
 3277 063d 57        		.byte	87
 3278 063e 28        		.byte	40
 3279 063f BC        		.byte	-68
 3280 0640 93        		.byte	-109
 3281 0641 07        		.byte	7
 3282 0642 78        		.byte	120
 3283 0643 EC        		.byte	-20
 3284 0644 86        		.byte	-122
 3285 0645 12        		.byte	18
 3286 0646 6D        		.byte	109
 3287 0647 F9        		.byte	-7
 3288 0648 B9        		.byte	-71
 3289 0649 2D        		.byte	45
 3290 064a 52        		.byte	82
 3291 064b C6        		.byte	-58
 3292 064c AC        		.byte	-84
 3293 064d 38        		.byte	56
 3294 064e 47        		.byte	71
 3295 064f D3        		.byte	-45
 3296 0650 C7        		.byte	-57
 3297 0651 53        		.byte	83
 3298 0652 2C        		.byte	44
 3299 0653 B8        		.byte	-72
 3300 0654 D2        		.byte	-46
 3301 0655 46        		.byte	70
 3302 0656 39        		.byte	57
 3303 0657 AD        		.byte	-83
 3304 0658 ED        		.byte	-19
 3305 0659 79        		.byte	121
 3306 065a 06        		.byte	6
 3307 065b 92        		.byte	-110
 3308 065c F8        		.byte	-8
 3309 065d 6C        		.byte	108
 3310 065e 13        		.byte	19
 3311 065f 87        		.byte	-121
 3312 0660 3B        		.byte	59
 3313 0661 AF        		.byte	-81
 3314 0662 D0        		.byte	-48
 3315 0663 44        		.byte	68
 3316 0664 2E        		.byte	46
 3317 0665 BA        		.byte	-70
 3318 0666 C5        		.byte	-59
 3319 0667 51        		.byte	81
 3320 0668 11        		.byte	17
 3321 0669 85        		.byte	-123
 3322 066a FA        		.byte	-6
 3323 066b 6E        		.byte	110
 3324 066c 04        		.byte	4
 3325 066d 90        		.byte	-112
 3326 066e EF        		.byte	-17
 3327 066f 7B        		.byte	123
 3328 0670 6F        		.byte	111
 3329 0671 FB        		.byte	-5
 3330 0672 84        		.byte	-124
 3331 0673 10        		.byte	16
 3332 0674 7A        		.byte	122
 3333 0675 EE        		.byte	-18
 3334 0676 91        		.byte	-111
 3335 0677 05        		.byte	5
 3336 0678 45        		.byte	69
 3337 0679 D1        		.byte	-47
 3338 067a AE        		.byte	-82
 3339 067b 3A        		.byte	58
 3340 067c 50        		.byte	80
 3341 067d C4        		.byte	-60
 3342 067e BB        		.byte	-69
 3343 067f 2F        		.byte	47
 3344 0680 E5        		.byte	-27
 3345 0681 71        		.byte	113
 3346 0682 0E        		.byte	14
 3347 0683 9A        		.byte	-102
 3348 0684 F0        		.byte	-16
 3349 0685 64        		.byte	100
 3350 0686 1B        		.byte	27
 3351 0687 8F        		.byte	-113
 3352 0688 CF        		.byte	-49
 3353 0689 5B        		.byte	91
 3354 068a 24        		.byte	36
 3355 068b B0        		.byte	-80
 3356 068c DA        		.byte	-38
 3357 068d 4E        		.byte	78
 3358 068e 31        		.byte	49
 3359 068f A5        		.byte	-91
 3360 0690 B1        		.byte	-79
 3361 0691 25        		.byte	37
 3362 0692 5A        		.byte	90
 3363 0693 CE        		.byte	-50
 3364 0694 A4        		.byte	-92
 3365 0695 30        		.byte	48
 3366 0696 4F        		.byte	79
 3367 0697 DB        		.byte	-37
 3368 0698 9B        		.byte	-101
 3369 0699 0F        		.byte	15
 3370 069a 70        		.byte	112
 3371 069b E4        		.byte	-28
 3372 069c 8E        		.byte	-114
 3373 069d 1A        		.byte	26
 3374 069e 65        		.byte	101
 3375 069f F1        		.byte	-15
 3376 06a0 4D        		.byte	77
 3377 06a1 D9        		.byte	-39
 3378 06a2 A6        		.byte	-90
 3379 06a3 32        		.byte	50
 3380 06a4 58        		.byte	88
 3381 06a5 CC        		.byte	-52
 3382 06a6 B3        		.byte	-77
 3383 06a7 27        		.byte	39
 3384 06a8 67        		.byte	103
 3385 06a9 F3        		.byte	-13
 3386 06aa 8C        		.byte	-116
 3387 06ab 18        		.byte	24
 3388 06ac 72        		.byte	114
 3389 06ad E6        		.byte	-26
 3390 06ae 99        		.byte	-103
 3391 06af 0D        		.byte	13
 3392 06b0 19        		.byte	25
 3393 06b1 8D        		.byte	-115
 3394 06b2 F2        		.byte	-14
 3395 06b3 66        		.byte	102
 3396 06b4 0C        		.byte	12
 3397 06b5 98        		.byte	-104
 3398 06b6 E7        		.byte	-25
 3399 06b7 73        		.byte	115
 3400 06b8 33        		.byte	51
 3401 06b9 A7        		.byte	-89
 3402 06ba D8        		.byte	-40
 3403 06bb 4C        		.byte	76
 3404 06bc 26        		.byte	38
 3405 06bd B2        		.byte	-78
 3406 06be CD        		.byte	-51
 3407 06bf 59        		.byte	89
 3408 06c0 76        		.byte	118
 3409 06c1 E2        		.byte	-30
 3410 06c2 9D        		.byte	-99
 3411 06c3 09        		.byte	9
 3412 06c4 63        		.byte	99
 3413 06c5 F7        		.byte	-9
 3414 06c6 88        		.byte	-120
 3415 06c7 1C        		.byte	28
 3416 06c8 5C        		.byte	92
 3417 06c9 C8        		.byte	-56
 3418 06ca B7        		.byte	-73
 3419 06cb 23        		.byte	35
 3420 06cc 49        		.byte	73
 3421 06cd DD        		.byte	-35
 3422 06ce A2        		.byte	-94
 3423 06cf 36        		.byte	54
 3424 06d0 22        		.byte	34
 3425 06d1 B6        		.byte	-74
 3426 06d2 C9        		.byte	-55
 3427 06d3 5D        		.byte	93
 3428 06d4 37        		.byte	55
 3429 06d5 A3        		.byte	-93
 3430 06d6 DC        		.byte	-36
 3431 06d7 48        		.byte	72
 3432 06d8 08        		.byte	8
 3433 06d9 9C        		.byte	-100
 3434 06da E3        		.byte	-29
 3435 06db 77        		.byte	119
 3436 06dc 1D        		.byte	29
 3437 06dd 89        		.byte	-119
 3438 06de F6        		.byte	-10
 3439 06df 62        		.byte	98
 3440 06e0 DE        		.byte	-34
 3441 06e1 4A        		.byte	74
 3442 06e2 35        		.byte	53
 3443 06e3 A1        		.byte	-95
 3444 06e4 CB        		.byte	-53
 3445 06e5 5F        		.byte	95
 3446 06e6 20        		.byte	32
 3447 06e7 B4        		.byte	-76
 3448 06e8 F4        		.byte	-12
 3449 06e9 60        		.byte	96
 3450 06ea 1F        		.byte	31
 3451 06eb 8B        		.byte	-117
 3452 06ec E1        		.byte	-31
 3453 06ed 75        		.byte	117
 3454 06ee 0A        		.byte	10
 3455 06ef 9E        		.byte	-98
 3456 06f0 8A        		.byte	-118
 3457 06f1 1E        		.byte	30
 3458 06f2 61        		.byte	97
 3459 06f3 F5        		.byte	-11
 3460 06f4 9F        		.byte	-97
 3461 06f5 0B        		.byte	11
 3462 06f6 74        		.byte	116
 3463 06f7 E0        		.byte	-32
 3464 06f8 A0        		.byte	-96
 3465 06f9 34        		.byte	52
 3466 06fa 4B        		.byte	75
 3467 06fb DF        		.byte	-33
 3468 06fc B5        		.byte	-75
 3469 06fd 21        		.byte	33
 3470 06fe 5E        		.byte	94
 3471 06ff CA        		.byte	-54
 3472 0700 00        		.byte	0
 3473 0701 C0        		.byte	-64
 3474 0702 43        		.byte	67
 3475 0703 83        		.byte	-125
 3476 0704 86        		.byte	-122
 3477 0705 46        		.byte	70
 3478 0706 C5        		.byte	-59
 3479 0707 05        		.byte	5
 3480 0708 CF        		.byte	-49
 3481 0709 0F        		.byte	15
 3482 070a 8C        		.byte	-116
 3483 070b 4C        		.byte	76
 3484 070c 49        		.byte	73
 3485 070d 89        		.byte	-119
 3486 070e 0A        		.byte	10
 3487 070f CA        		.byte	-54
 3488 0710 5D        		.byte	93
 3489 0711 9D        		.byte	-99
 3490 0712 1E        		.byte	30
 3491 0713 DE        		.byte	-34
 3492 0714 DB        		.byte	-37
 3493 0715 1B        		.byte	27
 3494 0716 98        		.byte	-104
 3495 0717 58        		.byte	88
 3496 0718 92        		.byte	-110
 3497 0719 52        		.byte	82
 3498 071a D1        		.byte	-47
 3499 071b 11        		.byte	17
 3500 071c 14        		.byte	20
 3501 071d D4        		.byte	-44
 3502 071e 57        		.byte	87
 3503 071f 97        		.byte	-105
 3504 0720 BA        		.byte	-70
 3505 0721 7A        		.byte	122
 3506 0722 F9        		.byte	-7
 3507 0723 39        		.byte	57
 3508 0724 3C        		.byte	60
 3509 0725 FC        		.byte	-4
 3510 0726 7F        		.byte	127
 3511 0727 BF        		.byte	-65
 3512 0728 75        		.byte	117
 3513 0729 B5        		.byte	-75
 3514 072a 36        		.byte	54
 3515 072b F6        		.byte	-10
 3516 072c F3        		.byte	-13
 3517 072d 33        		.byte	51
 3518 072e B0        		.byte	-80
 3519 072f 70        		.byte	112
 3520 0730 E7        		.byte	-25
 3521 0731 27        		.byte	39
 3522 0732 A4        		.byte	-92
 3523 0733 64        		.byte	100
 3524 0734 61        		.byte	97
 3525 0735 A1        		.byte	-95
 3526 0736 22        		.byte	34
 3527 0737 E2        		.byte	-30
 3528 0738 28        		.byte	40
 3529 0739 E8        		.byte	-24
 3530 073a 6B        		.byte	107
 3531 073b AB        		.byte	-85
 3532 073c AE        		.byte	-82
 3533 073d 6E        		.byte	110
 3534 073e ED        		.byte	-19
 3535 073f 2D        		.byte	45
 3536 0740 B7        		.byte	-73
 3537 0741 77        		.byte	119
 3538 0742 F4        		.byte	-12
 3539 0743 34        		.byte	52
 3540 0744 31        		.byte	49
 3541 0745 F1        		.byte	-15
 3542 0746 72        		.byte	114
 3543 0747 B2        		.byte	-78
 3544 0748 78        		.byte	120
 3545 0749 B8        		.byte	-72
 3546 074a 3B        		.byte	59
 3547 074b FB        		.byte	-5
 3548 074c FE        		.byte	-2
 3549 074d 3E        		.byte	62
 3550 074e BD        		.byte	-67
 3551 074f 7D        		.byte	125
 3552 0750 EA        		.byte	-22
 3553 0751 2A        		.byte	42
 3554 0752 A9        		.byte	-87
 3555 0753 69        		.byte	105
 3556 0754 6C        		.byte	108
 3557 0755 AC        		.byte	-84
 3558 0756 2F        		.byte	47
 3559 0757 EF        		.byte	-17
 3560 0758 25        		.byte	37
 3561 0759 E5        		.byte	-27
 3562 075a 66        		.byte	102
 3563 075b A6        		.byte	-90
 3564 075c A3        		.byte	-93
 3565 075d 63        		.byte	99
 3566 075e E0        		.byte	-32
 3567 075f 20        		.byte	32
 3568 0760 0D        		.byte	13
 3569 0761 CD        		.byte	-51
 3570 0762 4E        		.byte	78
 3571 0763 8E        		.byte	-114
 3572 0764 8B        		.byte	-117
 3573 0765 4B        		.byte	75
 3574 0766 C8        		.byte	-56
 3575 0767 08        		.byte	8
 3576 0768 C2        		.byte	-62
 3577 0769 02        		.byte	2
 3578 076a 81        		.byte	-127
 3579 076b 41        		.byte	65
 3580 076c 44        		.byte	68
 3581 076d 84        		.byte	-124
 3582 076e 07        		.byte	7
 3583 076f C7        		.byte	-57
 3584 0770 50        		.byte	80
 3585 0771 90        		.byte	-112
 3586 0772 13        		.byte	19
 3587 0773 D3        		.byte	-45
 3588 0774 D6        		.byte	-42
 3589 0775 16        		.byte	22
 3590 0776 95        		.byte	-107
 3591 0777 55        		.byte	85
 3592 0778 9F        		.byte	-97
 3593 0779 5F        		.byte	95
 3594 077a DC        		.byte	-36
 3595 077b 1C        		.byte	28
 3596 077c 19        		.byte	25
 3597 077d D9        		.byte	-39
 3598 077e 5A        		.byte	90
 3599 077f 9A        		.byte	-102
 3600 0780 AD        		.byte	-83
 3601 0781 6D        		.byte	109
 3602 0782 EE        		.byte	-18
 3603 0783 2E        		.byte	46
 3604 0784 2B        		.byte	43
 3605 0785 EB        		.byte	-21
 3606 0786 68        		.byte	104
 3607 0787 A8        		.byte	-88
 3608 0788 62        		.byte	98
 3609 0789 A2        		.byte	-94
 3610 078a 21        		.byte	33
 3611 078b E1        		.byte	-31
 3612 078c E4        		.byte	-28
 3613 078d 24        		.byte	36
 3614 078e A7        		.byte	-89
 3615 078f 67        		.byte	103
 3616 0790 F0        		.byte	-16
 3617 0791 30        		.byte	48
 3618 0792 B3        		.byte	-77
 3619 0793 73        		.byte	115
 3620 0794 76        		.byte	118
 3621 0795 B6        		.byte	-74
 3622 0796 35        		.byte	53
 3623 0797 F5        		.byte	-11
 3624 0798 3F        		.byte	63
 3625 0799 FF        		.byte	-1
 3626 079a 7C        		.byte	124
 3627 079b BC        		.byte	-68
 3628 079c B9        		.byte	-71
 3629 079d 79        		.byte	121
 3630 079e FA        		.byte	-6
 3631 079f 3A        		.byte	58
 3632 07a0 17        		.byte	23
 3633 07a1 D7        		.byte	-41
 3634 07a2 54        		.byte	84
 3635 07a3 94        		.byte	-108
 3636 07a4 91        		.byte	-111
 3637 07a5 51        		.byte	81
 3638 07a6 D2        		.byte	-46
 3639 07a7 12        		.byte	18
 3640 07a8 D8        		.byte	-40
 3641 07a9 18        		.byte	24
 3642 07aa 9B        		.byte	-101
 3643 07ab 5B        		.byte	91
 3644 07ac 5E        		.byte	94
 3645 07ad 9E        		.byte	-98
 3646 07ae 1D        		.byte	29
 3647 07af DD        		.byte	-35
 3648 07b0 4A        		.byte	74
 3649 07b1 8A        		.byte	-118
 3650 07b2 09        		.byte	9
 3651 07b3 C9        		.byte	-55
 3652 07b4 CC        		.byte	-52
 3653 07b5 0C        		.byte	12
 3654 07b6 8F        		.byte	-113
 3655 07b7 4F        		.byte	79
 3656 07b8 85        		.byte	-123
 3657 07b9 45        		.byte	69
 3658 07ba C6        		.byte	-58
 3659 07bb 06        		.byte	6
 3660 07bc 03        		.byte	3
 3661 07bd C3        		.byte	-61
 3662 07be 40        		.byte	64
 3663 07bf 80        		.byte	-128
 3664 07c0 1A        		.byte	26
 3665 07c1 DA        		.byte	-38
 3666 07c2 59        		.byte	89
 3667 07c3 99        		.byte	-103
 3668 07c4 9C        		.byte	-100
 3669 07c5 5C        		.byte	92
 3670 07c6 DF        		.byte	-33
 3671 07c7 1F        		.byte	31
 3672 07c8 D5        		.byte	-43
 3673 07c9 15        		.byte	21
 3674 07ca 96        		.byte	-106
 3675 07cb 56        		.byte	86
 3676 07cc 53        		.byte	83
 3677 07cd 93        		.byte	-109
 3678 07ce 10        		.byte	16
 3679 07cf D0        		.byte	-48
 3680 07d0 47        		.byte	71
 3681 07d1 87        		.byte	-121
 3682 07d2 04        		.byte	4
 3683 07d3 C4        		.byte	-60
 3684 07d4 C1        		.byte	-63
 3685 07d5 01        		.byte	1
 3686 07d6 82        		.byte	-126
 3687 07d7 42        		.byte	66
 3688 07d8 88        		.byte	-120
 3689 07d9 48        		.byte	72
 3690 07da CB        		.byte	-53
 3691 07db 0B        		.byte	11
 3692 07dc 0E        		.byte	14
 3693 07dd CE        		.byte	-50
 3694 07de 4D        		.byte	77
 3695 07df 8D        		.byte	-115
 3696 07e0 A0        		.byte	-96
 3697 07e1 60        		.byte	96
 3698 07e2 E3        		.byte	-29
 3699 07e3 23        		.byte	35
 3700 07e4 26        		.byte	38
 3701 07e5 E6        		.byte	-26
 3702 07e6 65        		.byte	101
 3703 07e7 A5        		.byte	-91
 3704 07e8 6F        		.byte	111
 3705 07e9 AF        		.byte	-81
 3706 07ea 2C        		.byte	44
 3707 07eb EC        		.byte	-20
 3708 07ec E9        		.byte	-23
 3709 07ed 29        		.byte	41
 3710 07ee AA        		.byte	-86
 3711 07ef 6A        		.byte	106
 3712 07f0 FD        		.byte	-3
 3713 07f1 3D        		.byte	61
 3714 07f2 BE        		.byte	-66
 3715 07f3 7E        		.byte	126
 3716 07f4 7B        		.byte	123
 3717 07f5 BB        		.byte	-69
 3718 07f6 38        		.byte	56
 3719 07f7 F8        		.byte	-8
 3720 07f8 32        		.byte	50
 3721 07f9 F2        		.byte	-14
 3722 07fa 71        		.byte	113
 3723 07fb B1        		.byte	-79
 3724 07fc B4        		.byte	-76
 3725 07fd 74        		.byte	116
 3726 07fe F7        		.byte	-9
 3727 07ff 37        		.byte	55
 3728 0800 00        		.byte	0
 3729 0801 C2        		.byte	-62
 3730 0802 47        		.byte	71
 3731 0803 85        		.byte	-123
 3732 0804 8E        		.byte	-114
 3733 0805 4C        		.byte	76
 3734 0806 C9        		.byte	-55
 3735 0807 0B        		.byte	11
 3736 0808 DF        		.byte	-33
 3737 0809 1D        		.byte	29
 3738 080a 98        		.byte	-104
 3739 080b 5A        		.byte	90
 3740 080c 51        		.byte	81
 3741 080d 93        		.byte	-109
 3742 080e 16        		.byte	22
 3743 080f D4        		.byte	-44
 3744 0810 7D        		.byte	125
 3745 0811 BF        		.byte	-65
 3746 0812 3A        		.byte	58
 3747 0813 F8        		.byte	-8
 3748 0814 F3        		.byte	-13
 3749 0815 31        		.byte	49
 3750 0816 B4        		.byte	-76
 3751 0817 76        		.byte	118
 3752 0818 A2        		.byte	-94
 3753 0819 60        		.byte	96
 3754 081a E5        		.byte	-27
 3755 081b 27        		.byte	39
 3756 081c 2C        		.byte	44
 3757 081d EE        		.byte	-18
 3758 081e 6B        		.byte	107
 3759 081f A9        		.byte	-87
 3760 0820 FA        		.byte	-6
 3761 0821 38        		.byte	56
 3762 0822 BD        		.byte	-67
 3763 0823 7F        		.byte	127
 3764 0824 74        		.byte	116
 3765 0825 B6        		.byte	-74
 3766 0826 33        		.byte	51
 3767 0827 F1        		.byte	-15
 3768 0828 25        		.byte	37
 3769 0829 E7        		.byte	-25
 3770 082a 62        		.byte	98
 3771 082b A0        		.byte	-96
 3772 082c AB        		.byte	-85
 3773 082d 69        		.byte	105
 3774 082e EC        		.byte	-20
 3775 082f 2E        		.byte	46
 3776 0830 87        		.byte	-121
 3777 0831 45        		.byte	69
 3778 0832 C0        		.byte	-64
 3779 0833 02        		.byte	2
 3780 0834 09        		.byte	9
 3781 0835 CB        		.byte	-53
 3782 0836 4E        		.byte	78
 3783 0837 8C        		.byte	-116
 3784 0838 58        		.byte	88
 3785 0839 9A        		.byte	-102
 3786 083a 1F        		.byte	31
 3787 083b DD        		.byte	-35
 3788 083c D6        		.byte	-42
 3789 083d 14        		.byte	20
 3790 083e 91        		.byte	-111
 3791 083f 53        		.byte	83
 3792 0840 37        		.byte	55
 3793 0841 F5        		.byte	-11
 3794 0842 70        		.byte	112
 3795 0843 B2        		.byte	-78
 3796 0844 B9        		.byte	-71
 3797 0845 7B        		.byte	123
 3798 0846 FE        		.byte	-2
 3799 0847 3C        		.byte	60
 3800 0848 E8        		.byte	-24
 3801 0849 2A        		.byte	42
 3802 084a AF        		.byte	-81
 3803 084b 6D        		.byte	109
 3804 084c 66        		.byte	102
 3805 084d A4        		.byte	-92
 3806 084e 21        		.byte	33
 3807 084f E3        		.byte	-29
 3808 0850 4A        		.byte	74
 3809 0851 88        		.byte	-120
 3810 0852 0D        		.byte	13
 3811 0853 CF        		.byte	-49
 3812 0854 C4        		.byte	-60
 3813 0855 06        		.byte	6
 3814 0856 83        		.byte	-125
 3815 0857 41        		.byte	65
 3816 0858 95        		.byte	-107
 3817 0859 57        		.byte	87
 3818 085a D2        		.byte	-46
 3819 085b 10        		.byte	16
 3820 085c 1B        		.byte	27
 3821 085d D9        		.byte	-39
 3822 085e 5C        		.byte	92
 3823 085f 9E        		.byte	-98
 3824 0860 CD        		.byte	-51
 3825 0861 0F        		.byte	15
 3826 0862 8A        		.byte	-118
 3827 0863 48        		.byte	72
 3828 0864 43        		.byte	67
 3829 0865 81        		.byte	-127
 3830 0866 04        		.byte	4
 3831 0867 C6        		.byte	-58
 3832 0868 12        		.byte	18
 3833 0869 D0        		.byte	-48
 3834 086a 55        		.byte	85
 3835 086b 97        		.byte	-105
 3836 086c 9C        		.byte	-100
 3837 086d 5E        		.byte	94
 3838 086e DB        		.byte	-37
 3839 086f 19        		.byte	25
 3840 0870 B0        		.byte	-80
 3841 0871 72        		.byte	114
 3842 0872 F7        		.byte	-9
 3843 0873 35        		.byte	53
 3844 0874 3E        		.byte	62
 3845 0875 FC        		.byte	-4
 3846 0876 79        		.byte	121
 3847 0877 BB        		.byte	-69
 3848 0878 6F        		.byte	111
 3849 0879 AD        		.byte	-83
 3850 087a 28        		.byte	40
 3851 087b EA        		.byte	-22
 3852 087c E1        		.byte	-31
 3853 087d 23        		.byte	35
 3854 087e A6        		.byte	-90
 3855 087f 64        		.byte	100
 3856 0880 6E        		.byte	110
 3857 0881 AC        		.byte	-84
 3858 0882 29        		.byte	41
 3859 0883 EB        		.byte	-21
 3860 0884 E0        		.byte	-32
 3861 0885 22        		.byte	34
 3862 0886 A7        		.byte	-89
 3863 0887 65        		.byte	101
 3864 0888 B1        		.byte	-79
 3865 0889 73        		.byte	115
 3866 088a F6        		.byte	-10
 3867 088b 34        		.byte	52
 3868 088c 3F        		.byte	63
 3869 088d FD        		.byte	-3
 3870 088e 78        		.byte	120
 3871 088f BA        		.byte	-70
 3872 0890 13        		.byte	19
 3873 0891 D1        		.byte	-47
 3874 0892 54        		.byte	84
 3875 0893 96        		.byte	-106
 3876 0894 9D        		.byte	-99
 3877 0895 5F        		.byte	95
 3878 0896 DA        		.byte	-38
 3879 0897 18        		.byte	24
 3880 0898 CC        		.byte	-52
 3881 0899 0E        		.byte	14
 3882 089a 8B        		.byte	-117
 3883 089b 49        		.byte	73
 3884 089c 42        		.byte	66
 3885 089d 80        		.byte	-128
 3886 089e 05        		.byte	5
 3887 089f C7        		.byte	-57
 3888 08a0 94        		.byte	-108
 3889 08a1 56        		.byte	86
 3890 08a2 D3        		.byte	-45
 3891 08a3 11        		.byte	17
 3892 08a4 1A        		.byte	26
 3893 08a5 D8        		.byte	-40
 3894 08a6 5D        		.byte	93
 3895 08a7 9F        		.byte	-97
 3896 08a8 4B        		.byte	75
 3897 08a9 89        		.byte	-119
 3898 08aa 0C        		.byte	12
 3899 08ab CE        		.byte	-50
 3900 08ac C5        		.byte	-59
 3901 08ad 07        		.byte	7
 3902 08ae 82        		.byte	-126
 3903 08af 40        		.byte	64
 3904 08b0 E9        		.byte	-23
 3905 08b1 2B        		.byte	43
 3906 08b2 AE        		.byte	-82
 3907 08b3 6C        		.byte	108
 3908 08b4 67        		.byte	103
 3909 08b5 A5        		.byte	-91
 3910 08b6 20        		.byte	32
 3911 08b7 E2        		.byte	-30
 3912 08b8 36        		.byte	54
 3913 08b9 F4        		.byte	-12
 3914 08ba 71        		.byte	113
 3915 08bb B3        		.byte	-77
 3916 08bc B8        		.byte	-72
 3917 08bd 7A        		.byte	122
 3918 08be FF        		.byte	-1
 3919 08bf 3D        		.byte	61
 3920 08c0 59        		.byte	89
 3921 08c1 9B        		.byte	-101
 3922 08c2 1E        		.byte	30
 3923 08c3 DC        		.byte	-36
 3924 08c4 D7        		.byte	-41
 3925 08c5 15        		.byte	21
 3926 08c6 90        		.byte	-112
 3927 08c7 52        		.byte	82
 3928 08c8 86        		.byte	-122
 3929 08c9 44        		.byte	68
 3930 08ca C1        		.byte	-63
 3931 08cb 03        		.byte	3
 3932 08cc 08        		.byte	8
 3933 08cd CA        		.byte	-54
 3934 08ce 4F        		.byte	79
 3935 08cf 8D        		.byte	-115
 3936 08d0 24        		.byte	36
 3937 08d1 E6        		.byte	-26
 3938 08d2 63        		.byte	99
 3939 08d3 A1        		.byte	-95
 3940 08d4 AA        		.byte	-86
 3941 08d5 68        		.byte	104
 3942 08d6 ED        		.byte	-19
 3943 08d7 2F        		.byte	47
 3944 08d8 FB        		.byte	-5
 3945 08d9 39        		.byte	57
 3946 08da BC        		.byte	-68
 3947 08db 7E        		.byte	126
 3948 08dc 75        		.byte	117
 3949 08dd B7        		.byte	-73
 3950 08de 32        		.byte	50
 3951 08df F0        		.byte	-16
 3952 08e0 A3        		.byte	-93
 3953 08e1 61        		.byte	97
 3954 08e2 E4        		.byte	-28
 3955 08e3 26        		.byte	38
 3956 08e4 2D        		.byte	45
 3957 08e5 EF        		.byte	-17
 3958 08e6 6A        		.byte	106
 3959 08e7 A8        		.byte	-88
 3960 08e8 7C        		.byte	124
 3961 08e9 BE        		.byte	-66
 3962 08ea 3B        		.byte	59
 3963 08eb F9        		.byte	-7
 3964 08ec F2        		.byte	-14
 3965 08ed 30        		.byte	48
 3966 08ee B5        		.byte	-75
 3967 08ef 77        		.byte	119
 3968 08f0 DE        		.byte	-34
 3969 08f1 1C        		.byte	28
 3970 08f2 99        		.byte	-103
 3971 08f3 5B        		.byte	91
 3972 08f4 50        		.byte	80
 3973 08f5 92        		.byte	-110
 3974 08f6 17        		.byte	23
 3975 08f7 D5        		.byte	-43
 3976 08f8 01        		.byte	1
 3977 08f9 C3        		.byte	-61
 3978 08fa 46        		.byte	70
 3979 08fb 84        		.byte	-124
 3980 08fc 8F        		.byte	-113
 3981 08fd 4D        		.byte	77
 3982 08fe C8        		.byte	-56
 3983 08ff 0A        		.byte	10
 3984 0900 00        		.byte	0
 3985 0901 FB        		.byte	-5
 3986 0902 35        		.byte	53
 3987 0903 CE        		.byte	-50
 3988 0904 6A        		.byte	106
 3989 0905 91        		.byte	-111
 3990 0906 5F        		.byte	95
 3991 0907 A4        		.byte	-92
 3992 0908 D4        		.byte	-44
 3993 0909 2F        		.byte	47
 3994 090a E1        		.byte	-31
 3995 090b 1A        		.byte	26
 3996 090c BE        		.byte	-66
 3997 090d 45        		.byte	69
 3998 090e 8B        		.byte	-117
 3999 090f 70        		.byte	112
 4000 0910 6B        		.byte	107
 4001 0911 90        		.byte	-112
 4002 0912 5E        		.byte	94
 4003 0913 A5        		.byte	-91
 4004 0914 01        		.byte	1
 4005 0915 FA        		.byte	-6
 4006 0916 34        		.byte	52
 4007 0917 CF        		.byte	-49
 4008 0918 BF        		.byte	-65
 4009 0919 44        		.byte	68
 4010 091a 8A        		.byte	-118
 4011 091b 71        		.byte	113
 4012 091c D5        		.byte	-43
 4013 091d 2E        		.byte	46
 4014 091e E0        		.byte	-32
 4015 091f 1B        		.byte	27
 4016 0920 D6        		.byte	-42
 4017 0921 2D        		.byte	45
 4018 0922 E3        		.byte	-29
 4019 0923 18        		.byte	24
 4020 0924 BC        		.byte	-68
 4021 0925 47        		.byte	71
 4022 0926 89        		.byte	-119
 4023 0927 72        		.byte	114
 4024 0928 02        		.byte	2
 4025 0929 F9        		.byte	-7
 4026 092a 37        		.byte	55
 4027 092b CC        		.byte	-52
 4028 092c 68        		.byte	104
 4029 092d 93        		.byte	-109
 4030 092e 5D        		.byte	93
 4031 092f A6        		.byte	-90
 4032 0930 BD        		.byte	-67
 4033 0931 46        		.byte	70
 4034 0932 88        		.byte	-120
 4035 0933 73        		.byte	115
 4036 0934 D7        		.byte	-41
 4037 0935 2C        		.byte	44
 4038 0936 E2        		.byte	-30
 4039 0937 19        		.byte	25
 4040 0938 69        		.byte	105
 4041 0939 92        		.byte	-110
 4042 093a 5C        		.byte	92
 4043 093b A7        		.byte	-89
 4044 093c 03        		.byte	3
 4045 093d F8        		.byte	-8
 4046 093e 36        		.byte	54
 4047 093f CD        		.byte	-51
 4048 0940 6F        		.byte	111
 4049 0941 94        		.byte	-108
 4050 0942 5A        		.byte	90
 4051 0943 A1        		.byte	-95
 4052 0944 05        		.byte	5
 4053 0945 FE        		.byte	-2
 4054 0946 30        		.byte	48
 4055 0947 CB        		.byte	-53
 4056 0948 BB        		.byte	-69
 4057 0949 40        		.byte	64
 4058 094a 8E        		.byte	-114
 4059 094b 75        		.byte	117
 4060 094c D1        		.byte	-47
 4061 094d 2A        		.byte	42
 4062 094e E4        		.byte	-28
 4063 094f 1F        		.byte	31
 4064 0950 04        		.byte	4
 4065 0951 FF        		.byte	-1
 4066 0952 31        		.byte	49
 4067 0953 CA        		.byte	-54
 4068 0954 6E        		.byte	110
 4069 0955 95        		.byte	-107
 4070 0956 5B        		.byte	91
 4071 0957 A0        		.byte	-96
 4072 0958 D0        		.byte	-48
 4073 0959 2B        		.byte	43
 4074 095a E5        		.byte	-27
 4075 095b 1E        		.byte	30
 4076 095c BA        		.byte	-70
 4077 095d 41        		.byte	65
 4078 095e 8F        		.byte	-113
 4079 095f 74        		.byte	116
 4080 0960 B9        		.byte	-71
 4081 0961 42        		.byte	66
 4082 0962 8C        		.byte	-116
 4083 0963 77        		.byte	119
 4084 0964 D3        		.byte	-45
 4085 0965 28        		.byte	40
 4086 0966 E6        		.byte	-26
 4087 0967 1D        		.byte	29
 4088 0968 6D        		.byte	109
 4089 0969 96        		.byte	-106
 4090 096a 58        		.byte	88
 4091 096b A3        		.byte	-93
 4092 096c 07        		.byte	7
 4093 096d FC        		.byte	-4
 4094 096e 32        		.byte	50
 4095 096f C9        		.byte	-55
 4096 0970 D2        		.byte	-46
 4097 0971 29        		.byte	41
 4098 0972 E7        		.byte	-25
 4099 0973 1C        		.byte	28
 4100 0974 B8        		.byte	-72
 4101 0975 43        		.byte	67
 4102 0976 8D        		.byte	-115
 4103 0977 76        		.byte	118
 4104 0978 06        		.byte	6
 4105 0979 FD        		.byte	-3
 4106 097a 33        		.byte	51
 4107 097b C8        		.byte	-56
 4108 097c 6C        		.byte	108
 4109 097d 97        		.byte	-105
 4110 097e 59        		.byte	89
 4111 097f A2        		.byte	-94
 4112 0980 DE        		.byte	-34
 4113 0981 25        		.byte	37
 4114 0982 EB        		.byte	-21
 4115 0983 10        		.byte	16
 4116 0984 B4        		.byte	-76
 4117 0985 4F        		.byte	79
 4118 0986 81        		.byte	-127
 4119 0987 7A        		.byte	122
 4120 0988 0A        		.byte	10
 4121 0989 F1        		.byte	-15
 4122 098a 3F        		.byte	63
 4123 098b C4        		.byte	-60
 4124 098c 60        		.byte	96
 4125 098d 9B        		.byte	-101
 4126 098e 55        		.byte	85
 4127 098f AE        		.byte	-82
 4128 0990 B5        		.byte	-75
 4129 0991 4E        		.byte	78
 4130 0992 80        		.byte	-128
 4131 0993 7B        		.byte	123
 4132 0994 DF        		.byte	-33
 4133 0995 24        		.byte	36
 4134 0996 EA        		.byte	-22
 4135 0997 11        		.byte	17
 4136 0998 61        		.byte	97
 4137 0999 9A        		.byte	-102
 4138 099a 54        		.byte	84
 4139 099b AF        		.byte	-81
 4140 099c 0B        		.byte	11
 4141 099d F0        		.byte	-16
 4142 099e 3E        		.byte	62
 4143 099f C5        		.byte	-59
 4144 09a0 08        		.byte	8
 4145 09a1 F3        		.byte	-13
 4146 09a2 3D        		.byte	61
 4147 09a3 C6        		.byte	-58
 4148 09a4 62        		.byte	98
 4149 09a5 99        		.byte	-103
 4150 09a6 57        		.byte	87
 4151 09a7 AC        		.byte	-84
 4152 09a8 DC        		.byte	-36
 4153 09a9 27        		.byte	39
 4154 09aa E9        		.byte	-23
 4155 09ab 12        		.byte	18
 4156 09ac B6        		.byte	-74
 4157 09ad 4D        		.byte	77
 4158 09ae 83        		.byte	-125
 4159 09af 78        		.byte	120
 4160 09b0 63        		.byte	99
 4161 09b1 98        		.byte	-104
 4162 09b2 56        		.byte	86
 4163 09b3 AD        		.byte	-83
 4164 09b4 09        		.byte	9
 4165 09b5 F2        		.byte	-14
 4166 09b6 3C        		.byte	60
 4167 09b7 C7        		.byte	-57
 4168 09b8 B7        		.byte	-73
 4169 09b9 4C        		.byte	76
 4170 09ba 82        		.byte	-126
 4171 09bb 79        		.byte	121
 4172 09bc DD        		.byte	-35
 4173 09bd 26        		.byte	38
 4174 09be E8        		.byte	-24
 4175 09bf 13        		.byte	19
 4176 09c0 B1        		.byte	-79
 4177 09c1 4A        		.byte	74
 4178 09c2 84        		.byte	-124
 4179 09c3 7F        		.byte	127
 4180 09c4 DB        		.byte	-37
 4181 09c5 20        		.byte	32
 4182 09c6 EE        		.byte	-18
 4183 09c7 15        		.byte	21
 4184 09c8 65        		.byte	101
 4185 09c9 9E        		.byte	-98
 4186 09ca 50        		.byte	80
 4187 09cb AB        		.byte	-85
 4188 09cc 0F        		.byte	15
 4189 09cd F4        		.byte	-12
 4190 09ce 3A        		.byte	58
 4191 09cf C1        		.byte	-63
 4192 09d0 DA        		.byte	-38
 4193 09d1 21        		.byte	33
 4194 09d2 EF        		.byte	-17
 4195 09d3 14        		.byte	20
 4196 09d4 B0        		.byte	-80
 4197 09d5 4B        		.byte	75
 4198 09d6 85        		.byte	-123
 4199 09d7 7E        		.byte	126
 4200 09d8 0E        		.byte	14
 4201 09d9 F5        		.byte	-11
 4202 09da 3B        		.byte	59
 4203 09db C0        		.byte	-64
 4204 09dc 64        		.byte	100
 4205 09dd 9F        		.byte	-97
 4206 09de 51        		.byte	81
 4207 09df AA        		.byte	-86
 4208 09e0 67        		.byte	103
 4209 09e1 9C        		.byte	-100
 4210 09e2 52        		.byte	82
 4211 09e3 A9        		.byte	-87
 4212 09e4 0D        		.byte	13
 4213 09e5 F6        		.byte	-10
 4214 09e6 38        		.byte	56
 4215 09e7 C3        		.byte	-61
 4216 09e8 B3        		.byte	-77
 4217 09e9 48        		.byte	72
 4218 09ea 86        		.byte	-122
 4219 09eb 7D        		.byte	125
 4220 09ec D9        		.byte	-39
 4221 09ed 22        		.byte	34
 4222 09ee EC        		.byte	-20
 4223 09ef 17        		.byte	23
 4224 09f0 0C        		.byte	12
 4225 09f1 F7        		.byte	-9
 4226 09f2 39        		.byte	57
 4227 09f3 C2        		.byte	-62
 4228 09f4 66        		.byte	102
 4229 09f5 9D        		.byte	-99
 4230 09f6 53        		.byte	83
 4231 09f7 A8        		.byte	-88
 4232 09f8 D8        		.byte	-40
 4233 09f9 23        		.byte	35
 4234 09fa ED        		.byte	-19
 4235 09fb 16        		.byte	22
 4236 09fc B2        		.byte	-78
 4237 09fd 49        		.byte	73
 4238 09fe 87        		.byte	-121
 4239 09ff 7C        		.byte	124
 4240               	.global	rsbox
 4241               		.data
 4244               	rsbox:
 4245 0000 A5        		.byte	-91
 4246 0001 2D        		.byte	45
 4247 0002 32        		.byte	50
 4248 0003 8F        		.byte	-113
 4249 0004 0E        		.byte	14
 4250 0005 30        		.byte	48
 4251 0006 38        		.byte	56
 4252 0007 C0        		.byte	-64
 4253 0008 54        		.byte	84
 4254 0009 E6        		.byte	-26
 4255 000a 9E        		.byte	-98
 4256 000b 39        		.byte	57
 4257 000c 55        		.byte	85
 4258 000d 7E        		.byte	126
 4259 000e 52        		.byte	82
 4260 000f 91        		.byte	-111
 4261 0010 64        		.byte	100
 4262 0011 03        		.byte	3
 4263 0012 57        		.byte	87
 4264 0013 5A        		.byte	90
 4265 0014 1C        		.byte	28
 4266 0015 60        		.byte	96
 4267 0016 07        		.byte	7
 4268 0017 18        		.byte	24
 4269 0018 21        		.byte	33
 4270 0019 72        		.byte	114
 4271 001a A8        		.byte	-88
 4272 001b D1        		.byte	-47
 4273 001c 29        		.byte	41
 4274 001d C6        		.byte	-58
 4275 001e A4        		.byte	-92
 4276 001f 3F        		.byte	63
 4277 0020 E0        		.byte	-32
 4278 0021 27        		.byte	39
 4279 0022 8D        		.byte	-115
 4280 0023 0C        		.byte	12
 4281 0024 82        		.byte	-126
 4282 0025 EA        		.byte	-22
 4283 0026 AE        		.byte	-82
 4284 0027 B4        		.byte	-76
 4285 0028 9A        		.byte	-102
 4286 0029 63        		.byte	99
 4287 002a 49        		.byte	73
 4288 002b E5        		.byte	-27
 4289 002c 42        		.byte	66
 4290 002d E4        		.byte	-28
 4291 002e 15        		.byte	21
 4292 002f B7        		.byte	-73
 4293 0030 C8        		.byte	-56
 4294 0031 06        		.byte	6
 4295 0032 70        		.byte	112
 4296 0033 9D        		.byte	-99
 4297 0034 41        		.byte	65
 4298 0035 75        		.byte	117
 4299 0036 19        		.byte	25
 4300 0037 C9        		.byte	-55
 4301 0038 AA        		.byte	-86
 4302 0039 FC        		.byte	-4
 4303 003a 4D        		.byte	77
 4304 003b BF        		.byte	-65
 4305 003c 2A        		.byte	42
 4306 003d 73        		.byte	115
 4307 003e 84        		.byte	-124
 4308 003f D5        		.byte	-43
 4309 0040 C3        		.byte	-61
 4310 0041 AF        		.byte	-81
 4311 0042 2B        		.byte	43
 4312 0043 86        		.byte	-122
 4313 0044 A7        		.byte	-89
 4314 0045 B1        		.byte	-79
 4315 0046 B2        		.byte	-78
 4316 0047 5B        		.byte	91
 4317 0048 46        		.byte	70
 4318 0049 D3        		.byte	-45
 4319 004a 9F        		.byte	-97
 4320 004b FD        		.byte	-3
 4321 004c D4        		.byte	-44
 4322 004d 0F        		.byte	15
 4323 004e 9C        		.byte	-100
 4324 004f 2F        		.byte	47
 4325 0050 9B        		.byte	-101
 4326 0051 43        		.byte	67
 4327 0052 EF        		.byte	-17
 4328 0053 D9        		.byte	-39
 4329 0054 79        		.byte	121
 4330 0055 B6        		.byte	-74
 4331 0056 53        		.byte	83
 4332 0057 7F        		.byte	127
 4333 0058 C1        		.byte	-63
 4334 0059 F0        		.byte	-16
 4335 005a 23        		.byte	35
 4336 005b E7        		.byte	-25
 4337 005c 25        		.byte	37
 4338 005d 5E        		.byte	94
 4339 005e B5        		.byte	-75
 4340 005f 1E        		.byte	30
 4341 0060 A2        		.byte	-94
 4342 0061 DF        		.byte	-33
 4343 0062 A6        		.byte	-90
 4344 0063 FE        		.byte	-2
 4345 0064 AC        		.byte	-84
 4346 0065 22        		.byte	34
 4347 0066 F9        		.byte	-7
 4348 0067 E2        		.byte	-30
 4349 0068 4A        		.byte	74
 4350 0069 BC        		.byte	-68
 4351 006a 35        		.byte	53
 4352 006b CA        		.byte	-54
 4353 006c EE        		.byte	-18
 4354 006d 78        		.byte	120
 4355 006e 05        		.byte	5
 4356 006f 6B        		.byte	107
 4357 0070 51        		.byte	81
 4358 0071 E1        		.byte	-31
 4359 0072 59        		.byte	89
 4360 0073 A3        		.byte	-93
 4361 0074 F2        		.byte	-14
 4362 0075 71        		.byte	113
 4363 0076 56        		.byte	86
 4364 0077 11        		.byte	17
 4365 0078 6A        		.byte	106
 4366 0079 89        		.byte	-119
 4367 007a 94        		.byte	-108
 4368 007b 65        		.byte	101
 4369 007c 8C        		.byte	-116
 4370 007d BB        		.byte	-69
 4371 007e 77        		.byte	119
 4372 007f 3C        		.byte	60
 4373 0080 7B        		.byte	123
 4374 0081 28        		.byte	40
 4375 0082 AB        		.byte	-85
 4376 0083 D2        		.byte	-46
 4377 0084 31        		.byte	49
 4378 0085 DE        		.byte	-34
 4379 0086 C4        		.byte	-60
 4380 0087 5F        		.byte	95
 4381 0088 CC        		.byte	-52
 4382 0089 CF        		.byte	-49
 4383 008a 76        		.byte	118
 4384 008b 2C        		.byte	44
 4385 008c B8        		.byte	-72
 4386 008d D8        		.byte	-40
 4387 008e 2E        		.byte	46
 4388 008f 36        		.byte	54
 4389 0090 DB        		.byte	-37
 4390 0091 69        		.byte	105
 4391 0092 B3        		.byte	-77
 4392 0093 14        		.byte	20
 4393 0094 95        		.byte	-107
 4394 0095 BE        		.byte	-66
 4395 0096 62        		.byte	98
 4396 0097 A1        		.byte	-95
 4397 0098 3B        		.byte	59
 4398 0099 16        		.byte	22
 4399 009a 66        		.byte	102
 4400 009b E9        		.byte	-23
 4401 009c 5C        		.byte	92
 4402 009d 6C        		.byte	108
 4403 009e 6D        		.byte	109
 4404 009f AD        		.byte	-83
 4405 00a0 37        		.byte	55
 4406 00a1 61        		.byte	97
 4407 00a2 4B        		.byte	75
 4408 00a3 B9        		.byte	-71
 4409 00a4 E3        		.byte	-29
 4410 00a5 BA        		.byte	-70
 4411 00a6 F1        		.byte	-15
 4412 00a7 A0        		.byte	-96
 4413 00a8 85        		.byte	-123
 4414 00a9 83        		.byte	-125
 4415 00aa DA        		.byte	-38
 4416 00ab 47        		.byte	71
 4417 00ac C5        		.byte	-59
 4418 00ad B0        		.byte	-80
 4419 00ae 33        		.byte	51
 4420 00af FA        		.byte	-6
 4421 00b0 96        		.byte	-106
 4422 00b1 6F        		.byte	111
 4423 00b2 6E        		.byte	110
 4424 00b3 C2        		.byte	-62
 4425 00b4 F6        		.byte	-10
 4426 00b5 50        		.byte	80
 4427 00b6 FF        		.byte	-1
 4428 00b7 5D        		.byte	93
 4429 00b8 A9        		.byte	-87
 4430 00b9 8E        		.byte	-114
 4431 00ba 17        		.byte	23
 4432 00bb 1B        		.byte	27
 4433 00bc 97        		.byte	-105
 4434 00bd 7D        		.byte	125
 4435 00be EC        		.byte	-20
 4436 00bf 58        		.byte	88
 4437 00c0 F7        		.byte	-9
 4438 00c1 1F        		.byte	31
 4439 00c2 FB        		.byte	-5
 4440 00c3 7C        		.byte	124
 4441 00c4 09        		.byte	9
 4442 00c5 0D        		.byte	13
 4443 00c6 7A        		.byte	122
 4444 00c7 67        		.byte	103
 4445 00c8 45        		.byte	69
 4446 00c9 87        		.byte	-121
 4447 00ca DC        		.byte	-36
 4448 00cb E8        		.byte	-24
 4449 00cc 4F        		.byte	79
 4450 00cd 1D        		.byte	29
 4451 00ce 4E        		.byte	78
 4452 00cf 04        		.byte	4
 4453 00d0 EB        		.byte	-21
 4454 00d1 F8        		.byte	-8
 4455 00d2 F3        		.byte	-13
 4456 00d3 3E        		.byte	62
 4457 00d4 3D        		.byte	61
 4458 00d5 BD        		.byte	-67
 4459 00d6 8A        		.byte	-118
 4460 00d7 88        		.byte	-120
 4461 00d8 DD        		.byte	-35
 4462 00d9 CD        		.byte	-51
 4463 00da 0B        		.byte	11
 4464 00db 13        		.byte	19
 4465 00dc 98        		.byte	-104
 4466 00dd 02        		.byte	2
 4467 00de 93        		.byte	-109
 4468 00df 80        		.byte	-128
 4469 00e0 90        		.byte	-112
 4470 00e1 D0        		.byte	-48
 4471 00e2 24        		.byte	36
 4472 00e3 34        		.byte	52
 4473 00e4 CB        		.byte	-53
 4474 00e5 ED        		.byte	-19
 4475 00e6 F4        		.byte	-12
 4476 00e7 CE        		.byte	-50
 4477 00e8 99        		.byte	-103
 4478 00e9 10        		.byte	16
 4479 00ea 44        		.byte	68
 4480 00eb 40        		.byte	64
 4481 00ec 92        		.byte	-110
 4482 00ed 3A        		.byte	58
 4483 00ee 01        		.byte	1
 4484 00ef 26        		.byte	38
 4485 00f0 12        		.byte	18
 4486 00f1 1A        		.byte	26
 4487 00f2 48        		.byte	72
 4488 00f3 68        		.byte	104
 4489 00f4 F5        		.byte	-11
 4490 00f5 81        		.byte	-127
 4491 00f6 8B        		.byte	-117
 4492 00f7 C7        		.byte	-57
 4493 00f8 D6        		.byte	-42
 4494 00f9 20        		.byte	32
 4495 00fa 0A        		.byte	10
 4496 00fb 08        		.byte	8
 4497 00fc 00        		.byte	0
 4498 00fd 4C        		.byte	76
 4499 00fe D7        		.byte	-41
 4500 00ff 74        		.byte	116
 4501               	.global	sbox
 4504               	sbox:
 4505 0100 FC        		.byte	-4
 4506 0101 EE        		.byte	-18
 4507 0102 DD        		.byte	-35
 4508 0103 11        		.byte	17
 4509 0104 CF        		.byte	-49
 4510 0105 6E        		.byte	110
 4511 0106 31        		.byte	49
 4512 0107 16        		.byte	22
 4513 0108 FB        		.byte	-5
 4514 0109 C4        		.byte	-60
 4515 010a FA        		.byte	-6
 4516 010b DA        		.byte	-38
 4517 010c 23        		.byte	35
 4518 010d C5        		.byte	-59
 4519 010e 04        		.byte	4
 4520 010f 4D        		.byte	77
 4521 0110 E9        		.byte	-23
 4522 0111 77        		.byte	119
 4523 0112 F0        		.byte	-16
 4524 0113 DB        		.byte	-37
 4525 0114 93        		.byte	-109
 4526 0115 2E        		.byte	46
 4527 0116 99        		.byte	-103
 4528 0117 BA        		.byte	-70
 4529 0118 17        		.byte	23
 4530 0119 36        		.byte	54
 4531 011a F1        		.byte	-15
 4532 011b BB        		.byte	-69
 4533 011c 14        		.byte	20
 4534 011d CD        		.byte	-51
 4535 011e 5F        		.byte	95
 4536 011f C1        		.byte	-63
 4537 0120 F9        		.byte	-7
 4538 0121 18        		.byte	24
 4539 0122 65        		.byte	101
 4540 0123 5A        		.byte	90
 4541 0124 E2        		.byte	-30
 4542 0125 5C        		.byte	92
 4543 0126 EF        		.byte	-17
 4544 0127 21        		.byte	33
 4545 0128 81        		.byte	-127
 4546 0129 1C        		.byte	28
 4547 012a 3C        		.byte	60
 4548 012b 42        		.byte	66
 4549 012c 8B        		.byte	-117
 4550 012d 01        		.byte	1
 4551 012e 8E        		.byte	-114
 4552 012f 4F        		.byte	79
 4553 0130 05        		.byte	5
 4554 0131 84        		.byte	-124
 4555 0132 02        		.byte	2
 4556 0133 AE        		.byte	-82
 4557 0134 E3        		.byte	-29
 4558 0135 6A        		.byte	106
 4559 0136 8F        		.byte	-113
 4560 0137 A0        		.byte	-96
 4561 0138 06        		.byte	6
 4562 0139 0B        		.byte	11
 4563 013a ED        		.byte	-19
 4564 013b 98        		.byte	-104
 4565 013c 7F        		.byte	127
 4566 013d D4        		.byte	-44
 4567 013e D3        		.byte	-45
 4568 013f 1F        		.byte	31
 4569 0140 EB        		.byte	-21
 4570 0141 34        		.byte	52
 4571 0142 2C        		.byte	44
 4572 0143 51        		.byte	81
 4573 0144 EA        		.byte	-22
 4574 0145 C8        		.byte	-56
 4575 0146 48        		.byte	72
 4576 0147 AB        		.byte	-85
 4577 0148 F2        		.byte	-14
 4578 0149 2A        		.byte	42
 4579 014a 68        		.byte	104
 4580 014b A2        		.byte	-94
 4581 014c FD        		.byte	-3
 4582 014d 3A        		.byte	58
 4583 014e CE        		.byte	-50
 4584 014f CC        		.byte	-52
 4585 0150 B5        		.byte	-75
 4586 0151 70        		.byte	112
 4587 0152 0E        		.byte	14
 4588 0153 56        		.byte	86
 4589 0154 08        		.byte	8
 4590 0155 0C        		.byte	12
 4591 0156 76        		.byte	118
 4592 0157 12        		.byte	18
 4593 0158 BF        		.byte	-65
 4594 0159 72        		.byte	114
 4595 015a 13        		.byte	19
 4596 015b 47        		.byte	71
 4597 015c 9C        		.byte	-100
 4598 015d B7        		.byte	-73
 4599 015e 5D        		.byte	93
 4600 015f 87        		.byte	-121
 4601 0160 15        		.byte	21
 4602 0161 A1        		.byte	-95
 4603 0162 96        		.byte	-106
 4604 0163 29        		.byte	41
 4605 0164 10        		.byte	16
 4606 0165 7B        		.byte	123
 4607 0166 9A        		.byte	-102
 4608 0167 C7        		.byte	-57
 4609 0168 F3        		.byte	-13
 4610 0169 91        		.byte	-111
 4611 016a 78        		.byte	120
 4612 016b 6F        		.byte	111
 4613 016c 9D        		.byte	-99
 4614 016d 9E        		.byte	-98
 4615 016e B2        		.byte	-78
 4616 016f B1        		.byte	-79
 4617 0170 32        		.byte	50
 4618 0171 75        		.byte	117
 4619 0172 19        		.byte	25
 4620 0173 3D        		.byte	61
 4621 0174 FF        		.byte	-1
 4622 0175 35        		.byte	53
 4623 0176 8A        		.byte	-118
 4624 0177 7E        		.byte	126
 4625 0178 6D        		.byte	109
 4626 0179 54        		.byte	84
 4627 017a C6        		.byte	-58
 4628 017b 80        		.byte	-128
 4629 017c C3        		.byte	-61
 4630 017d BD        		.byte	-67
 4631 017e 0D        		.byte	13
 4632 017f 57        		.byte	87
 4633 0180 DF        		.byte	-33
 4634 0181 F5        		.byte	-11
 4635 0182 24        		.byte	36
 4636 0183 A9        		.byte	-87
 4637 0184 3E        		.byte	62
 4638 0185 A8        		.byte	-88
 4639 0186 43        		.byte	67
 4640 0187 C9        		.byte	-55
 4641 0188 D7        		.byte	-41
 4642 0189 79        		.byte	121
 4643 018a D6        		.byte	-42
 4644 018b F6        		.byte	-10
 4645 018c 7C        		.byte	124
 4646 018d 22        		.byte	34
 4647 018e B9        		.byte	-71
 4648 018f 03        		.byte	3
 4649 0190 E0        		.byte	-32
 4650 0191 0F        		.byte	15
 4651 0192 EC        		.byte	-20
 4652 0193 DE        		.byte	-34
 4653 0194 7A        		.byte	122
 4654 0195 94        		.byte	-108
 4655 0196 B0        		.byte	-80
 4656 0197 BC        		.byte	-68
 4657 0198 DC        		.byte	-36
 4658 0199 E8        		.byte	-24
 4659 019a 28        		.byte	40
 4660 019b 50        		.byte	80
 4661 019c 4E        		.byte	78
 4662 019d 33        		.byte	51
 4663 019e 0A        		.byte	10
 4664 019f 4A        		.byte	74
 4665 01a0 A7        		.byte	-89
 4666 01a1 97        		.byte	-105
 4667 01a2 60        		.byte	96
 4668 01a3 73        		.byte	115
 4669 01a4 1E        		.byte	30
 4670 01a5 00        		.byte	0
 4671 01a6 62        		.byte	98
 4672 01a7 44        		.byte	68
 4673 01a8 1A        		.byte	26
 4674 01a9 B8        		.byte	-72
 4675 01aa 38        		.byte	56
 4676 01ab 82        		.byte	-126
 4677 01ac 64        		.byte	100
 4678 01ad 9F        		.byte	-97
 4679 01ae 26        		.byte	38
 4680 01af 41        		.byte	65
 4681 01b0 AD        		.byte	-83
 4682 01b1 45        		.byte	69
 4683 01b2 46        		.byte	70
 4684 01b3 92        		.byte	-110
 4685 01b4 27        		.byte	39
 4686 01b5 5E        		.byte	94
 4687 01b6 55        		.byte	85
 4688 01b7 2F        		.byte	47
 4689 01b8 8C        		.byte	-116
 4690 01b9 A3        		.byte	-93
 4691 01ba A5        		.byte	-91
 4692 01bb 7D        		.byte	125
 4693 01bc 69        		.byte	105
 4694 01bd D5        		.byte	-43
 4695 01be 95        		.byte	-107
 4696 01bf 3B        		.byte	59
 4697 01c0 07        		.byte	7
 4698 01c1 58        		.byte	88
 4699 01c2 B3        		.byte	-77
 4700 01c3 40        		.byte	64
 4701 01c4 86        		.byte	-122
 4702 01c5 AC        		.byte	-84
 4703 01c6 1D        		.byte	29
 4704 01c7 F7        		.byte	-9
 4705 01c8 30        		.byte	48
 4706 01c9 37        		.byte	55
 4707 01ca 6B        		.byte	107
 4708 01cb E4        		.byte	-28
 4709 01cc 88        		.byte	-120
 4710 01cd D9        		.byte	-39
 4711 01ce E7        		.byte	-25
 4712 01cf 89        		.byte	-119
 4713 01d0 E1        		.byte	-31
 4714 01d1 1B        		.byte	27
 4715 01d2 83        		.byte	-125
 4716 01d3 49        		.byte	73
 4717 01d4 4C        		.byte	76
 4718 01d5 3F        		.byte	63
 4719 01d6 F8        		.byte	-8
 4720 01d7 FE        		.byte	-2
 4721 01d8 8D        		.byte	-115
 4722 01d9 53        		.byte	83
 4723 01da AA        		.byte	-86
 4724 01db 90        		.byte	-112
 4725 01dc CA        		.byte	-54
 4726 01dd D8        		.byte	-40
 4727 01de 85        		.byte	-123
 4728 01df 61        		.byte	97
 4729 01e0 20        		.byte	32
 4730 01e1 71        		.byte	113
 4731 01e2 67        		.byte	103
 4732 01e3 A4        		.byte	-92
 4733 01e4 2D        		.byte	45
 4734 01e5 2B        		.byte	43
 4735 01e6 09        		.byte	9
 4736 01e7 5B        		.byte	91
 4737 01e8 CB        		.byte	-53
 4738 01e9 9B        		.byte	-101
 4739 01ea 25        		.byte	37
 4740 01eb D0        		.byte	-48
 4741 01ec BE        		.byte	-66
 4742 01ed E5        		.byte	-27
 4743 01ee 6C        		.byte	108
 4744 01ef 52        		.byte	82
 4745 01f0 59        		.byte	89
 4746 01f1 A6        		.byte	-90
 4747 01f2 74        		.byte	116
 4748 01f3 D2        		.byte	-46
 4749 01f4 E6        		.byte	-26
 4750 01f5 F4        		.byte	-12
 4751 01f6 B4        		.byte	-76
 4752 01f7 C0        		.byte	-64
 4753 01f8 D1        		.byte	-47
 4754 01f9 66        		.byte	102
 4755 01fa AF        		.byte	-81
 4756 01fb C2        		.byte	-62
 4757 01fc 39        		.byte	57
 4758 01fd 4B        		.byte	75
 4759 01fe 63        		.byte	99
 4760 01ff B6        		.byte	-74
 4761               		.local	Key
 4762               		.comm	Key,2,1
 4765               	trueRoundKey:
 4766 0200 88        		.byte	-120
 4767 0201 99        		.byte	-103
 4768 0202 AA        		.byte	-86
 4769 0203 BB        		.byte	-69
 4770 0204 CC        		.byte	-52
 4771 0205 DD        		.byte	-35
 4772 0206 EE        		.byte	-18
 4773 0207 FF        		.byte	-1
 4774 0208 00        		.byte	0
 4775 0209 11        		.byte	17
 4776 020a 22        		.byte	34
 4777 020b 33        		.byte	51
 4778 020c 44        		.byte	68
 4779 020d 55        		.byte	85
 4780 020e 66        		.byte	102
 4781 020f 77        		.byte	119
 4782 0210 FE        		.byte	-2
 4783 0211 DC        		.byte	-36
 4784 0212 BA        		.byte	-70
 4785 0213 98        		.byte	-104
 4786 0214 76        		.byte	118
 4787 0215 54        		.byte	84
 4788 0216 32        		.byte	50
 4789 0217 10        		.byte	16
 4790 0218 01        		.byte	1
 4791 0219 23        		.byte	35
 4792 021a 45        		.byte	69
 4793 021b 67        		.byte	103
 4794 021c 89        		.byte	-119
 4795 021d AB        		.byte	-85
 4796 021e CD        		.byte	-51
 4797 021f EF        		.byte	-17
 4798 0220 DB        		.byte	-37
 4799 0221 31        		.byte	49
 4800 0222 48        		.byte	72
 4801 0223 53        		.byte	83
 4802 0224 15        		.byte	21
 4803 0225 69        		.byte	105
 4804 0226 43        		.byte	67
 4805 0227 43        		.byte	67
 4806 0228 22        		.byte	34
 4807 0229 8D        		.byte	-115
 4808 022a 6A        		.byte	106
 4809 022b EF        		.byte	-17
 4810 022c 8C        		.byte	-116
 4811 022d C7        		.byte	-57
 4812 022e 8C        		.byte	-116
 4813 022f 44        		.byte	68
 4814 0230 3D        		.byte	61
 4815 0231 45        		.byte	69
 4816 0232 53        		.byte	83
 4817 0233 D8        		.byte	-40
 4818 0234 E9        		.byte	-23
 4819 0235 CF        		.byte	-49
 4820 0236 EC        		.byte	-20
 4821 0237 68        		.byte	104
 4822 0238 15        		.byte	21
 4823 0239 EB        		.byte	-21
 4824 023a AD        		.byte	-83
 4825 023b C4        		.byte	-60
 4826 023c 0A        		.byte	10
 4827 023d 9F        		.byte	-97
 4828 023e FD        		.byte	-3
 4829 023f 04        		.byte	4
 4830 0240 57        		.byte	87
 4831 0241 64        		.byte	100
 4832 0242 64        		.byte	100
 4833 0243 68        		.byte	104
 4834 0244 C4        		.byte	-60
 4835 0245 4A        		.byte	74
 4836 0246 5E        		.byte	94
 4837 0247 28        		.byte	40
 4838 0248 D3        		.byte	-45
 4839 0249 E5        		.byte	-27
 4840 024a 92        		.byte	-110
 4841 024b 46        		.byte	70
 4842 024c F4        		.byte	-12
 4843 024d 29        		.byte	41
 4844 024e F1        		.byte	-15
 4845 024f AC        		.byte	-84
 4846 0250 BD        		.byte	-67
 4847 0251 07        		.byte	7
 4848 0252 94        		.byte	-108
 4849 0253 35        		.byte	53
 4850 0254 16        		.byte	22
 4851 0255 5C        		.byte	92
 4852 0256 64        		.byte	100
 4853 0257 32        		.byte	50
 4854 0258 B5        		.byte	-75
 4855 0259 32        		.byte	50
 4856 025a E8        		.byte	-24
 4857 025b 28        		.byte	40
 4858 025c 34        		.byte	52
 4859 025d DA        		.byte	-38
 4860 025e 58        		.byte	88
 4861 025f 1B        		.byte	27
 4862 0260 51        		.byte	81
 4863 0261 E6        		.byte	-26
 4864 0262 40        		.byte	64
 4865 0263 75        		.byte	117
 4866 0264 7E        		.byte	126
 4867 0265 87        		.byte	-121
 4868 0266 45        		.byte	69
 4869 0267 DE        		.byte	-34
 4870 0268 70        		.byte	112
 4871 0269 57        		.byte	87
 4872 026a 27        		.byte	39
 4873 026b 26        		.byte	38
 4874 026c 5A        		.byte	90
 4875 026d 00        		.byte	0
 4876 026e 98        		.byte	-104
 4877 026f B1        		.byte	-79
 4878 0270 5A        		.byte	90
 4879 0271 79        		.byte	121
 4880 0272 25        		.byte	37
 4881 0273 01        		.byte	1
 4882 0274 7B        		.byte	123
 4883 0275 9F        		.byte	-97
 4884 0276 DD        		.byte	-35
 4885 0277 3E        		.byte	62
 4886 0278 D7        		.byte	-41
 4887 0279 2A        		.byte	42
 4888 027a 91        		.byte	-111
 4889 027b A2        		.byte	-94
 4890 027c 22        		.byte	34
 4891 027d 86        		.byte	-122
 4892 027e F9        		.byte	-7
 4893 027f 84        		.byte	-124
 4894 0280 BB        		.byte	-69
 4895 0281 44        		.byte	68
 4896 0282 E2        		.byte	-30
 4897 0283 53        		.byte	83
 4898 0284 78        		.byte	120
 4899 0285 C7        		.byte	-57
 4900 0286 31        		.byte	49
 4901 0287 23        		.byte	35
 4902 0288 A5        		.byte	-91
 4903 0289 F3        		.byte	-13
 4904 028a 2F        		.byte	47
 4905 028b 73        		.byte	115
 4906 028c CD        		.byte	-51
 4907 028d B6        		.byte	-74
 4908 028e E5        		.byte	-27
 4909 028f 17        		.byte	23
 4910 0290 72        		.byte	114
 4911 0291 E9        		.byte	-23
 4912 0292 DD        		.byte	-35
 4913 0293 74        		.byte	116
 4914 0294 16        		.byte	22
 4915 0295 BC        		.byte	-68
 4916 0296 F4        		.byte	-12
 4917 0297 5B        		.byte	91
 4918 0298 75        		.byte	117
 4919 0299 5D        		.byte	93
 4920 029a BA        		.byte	-70
 4921 029b A8        		.byte	-88
 4922 029c 8E        		.byte	-114
 4923 029d 4A        		.byte	74
 4924 029e 40        		.byte	64
 4925 029f 43        		.byte	67
 4926               		.local	RoundKey
 4927               		.comm	RoundKey,1056,1
 4928               		.local	stateDuringKS
 4929               		.comm	stateDuringKS,16,1
 4930               		.local	state
 4931               		.comm	state,2,1
 4932               		.text
 4933               	.Letext0:
 4934               		.file 2 "o:\\avr8\\avr\\include\\stdint.h"
DEFINED SYMBOLS
                            *ABS*:00000000 kuznyechik.c
C:\Users\alexx\AppData\Local\Temp\ccQNmSul.s:2      *ABS*:0000003e __SP_H__
C:\Users\alexx\AppData\Local\Temp\ccQNmSul.s:3      *ABS*:0000003d __SP_L__
C:\Users\alexx\AppData\Local\Temp\ccQNmSul.s:4      *ABS*:0000003f __SREG__
C:\Users\alexx\AppData\Local\Temp\ccQNmSul.s:5      *ABS*:0000003b __RAMPZ__
C:\Users\alexx\AppData\Local\Temp\ccQNmSul.s:6      *ABS*:00000034 __CCP__
C:\Users\alexx\AppData\Local\Temp\ccQNmSul.s:7      *ABS*:00000000 __tmp_reg__
C:\Users\alexx\AppData\Local\Temp\ccQNmSul.s:8      *ABS*:00000001 __zero_reg__
C:\Users\alexx\AppData\Local\Temp\ccQNmSul.s:13     .text:00000000 AddRoundKey
C:\Users\alexx\AppData\Local\Temp\ccQNmSul.s:4929   .bss:00000432 state
C:\Users\alexx\AppData\Local\Temp\ccQNmSul.s:4765   .data:00000200 trueRoundKey
C:\Users\alexx\AppData\Local\Temp\ccQNmSul.s:60     .text:00000032 kuznyechik_setkey
                             .bss:00000000 Key
C:\Users\alexx\AppData\Local\Temp\ccQNmSul.s:4762   .bss:00000002 RoundKey
C:\Users\alexx\AppData\Local\Temp\ccQNmSul.s:4927   .bss:00000422 stateDuringKS
C:\Users\alexx\AppData\Local\Temp\ccQNmSul.s:1676   .rodata:00000000 C
C:\Users\alexx\AppData\Local\Temp\ccQNmSul.s:4504   .data:00000100 sbox
C:\Users\alexx\AppData\Local\Temp\ccQNmSul.s:2191   .rodata:00000200 mult_mod_poly
C:\Users\alexx\AppData\Local\Temp\ccQNmSul.s:788    .text:0000044e kuznyechik_crypto
C:\Users\alexx\AppData\Local\Temp\ccQNmSul.s:1233   .text:000006a4 kuznyechik_decrypto
C:\Users\alexx\AppData\Local\Temp\ccQNmSul.s:4244   .data:00000000 rsbox

UNDEFINED SYMBOLS
__do_copy_data
__do_clear_bss
